; Listing generated by Microsoft (R) Optimizing Compiler Version 19.25.28614.0 

include listing.inc

INCLUDELIB OLDNAMES

PUBLIC	??_C@_0BC@EOODALEL@Unknown?5exception@		; `string'
PUBLIC	??_C@_0BF@KINCDENJ@bad?5array?5new?5length@	; `string'
PUBLIC	??_R4?$small_any_policy@M@anyimpl@cvflann@@6B@	; cvflann::anyimpl::small_any_policy<float>::`RTTI Complete Object Locator'
PUBLIC	??_R0PEBD@8					; char const * `RTTI Type Descriptor'
PUBLIC	??_R4?$big_any_policy@Uempty_any@anyimpl@cvflann@@@anyimpl@cvflann@@6B@ ; cvflann::anyimpl::big_any_policy<cvflann::anyimpl::empty_any>::`RTTI Complete Object Locator'
PUBLIC	??_R4exception@std@@6B@				; std::exception::`RTTI Complete Object Locator'
PUBLIC	??_R2?$small_any_policy@_N@anyimpl@cvflann@@8	; cvflann::anyimpl::small_any_policy<bool>::`RTTI Base Class Array'
PUBLIC	??_R2bad_array_new_length@std@@8		; std::bad_array_new_length::`RTTI Base Class Array'
PUBLIC	??_C@_0M@LLFGKPEG@?$FLempty_any?$FN@		; `string'
PUBLIC	??_7?$small_any_policy@_N@anyimpl@cvflann@@6B@	; cvflann::anyimpl::small_any_policy<bool>::`vftable'
PUBLIC	??_R0?AVbad_alloc@std@@@8			; std::bad_alloc `RTTI Type Descriptor'
PUBLIC	??_C@_0L@NMCHEKHG@video1?4mp4@			; `string'
PUBLIC	??_C@_0CG@GGBHFKB@Erro?5ao?5abrir?5o?5ficheiro?5de?5v?o?$LP@ ; `string'
PUBLIC	??_C@_02LDNLGICJ@VC@				; `string'
PUBLIC	??_C@_08EGGIHDDP@gray?4pgm@			; `string'
PUBLIC	??_C@_0BC@EKELLDGB@Fase?52?5concluida?6@	; `string'
PUBLIC	??_C@_0BD@FNBPBDIB@Fase?53?5concluida?6?6@	; `string'
PUBLIC	??_C@_0CL@JDABLFJH@Frame?5?$CFd?3?5A?5matricula?5n?C?$KDo?5foi?5@ ; `string'
PUBLIC	??_C@_07LFLALKLI@FRAME?3?5@			; `string'
PUBLIC	??_C@_01KMDKNFGN@?1@				; `string'
PUBLIC	??_C@_0M@NHHODHJD@Matricula?3?5@		; `string'
PUBLIC	??_C@_08JJLIBGIM@77?9QR?998@			; `string'
PUBLIC	??_C@_0BC@MEHHJOD@N?5de?5matriculas?3?5@	; `string'
PUBLIC	??_C@_0N@LPFKKEBD@?3AM?3am?3PM?3pm@		; `string'
PUBLIC	??_R2?$typed_base_any_policy@W4flann_algorithm_t@cvflann@@@anyimpl@cvflann@@8 ; cvflann::anyimpl::typed_base_any_policy<enum cvflann::flann_algorithm_t>::`RTTI Base Class Array'
PUBLIC	??_C@_0BI@CFPLBAOH@invalid?5string?5position@	; `string'
PUBLIC	??_C@_1BK@MHIKGOKE@?$AA?3?$AAA?$AAM?$AA?3?$AAa?$AAm?$AA?3?$AAP?$AAM?$AA?3?$AAp?$AAm@ ; `string'
PUBLIC	??_C@_0BA@JFNIOLAK@string?5too?5long@		; `string'
PUBLIC	??_R0M@8					; float `RTTI Type Descriptor'
PUBLIC	??_R2bad_alloc@std@@8				; std::bad_alloc::`RTTI Base Class Array'
PUBLIC	??_R1A@?0A@EA@?$small_any_policy@H@anyimpl@cvflann@@8 ; cvflann::anyimpl::small_any_policy<int>::`RTTI Base Class Descriptor at (0,-1,0,64)'
PUBLIC	??_R1A@?0A@EA@?$typed_base_any_policy@H@anyimpl@cvflann@@8 ; cvflann::anyimpl::typed_base_any_policy<int>::`RTTI Base Class Descriptor at (0,-1,0,64)'
PUBLIC	??_R1A@?0A@EA@?$small_any_policy@I@anyimpl@cvflann@@8 ; cvflann::anyimpl::small_any_policy<unsigned int>::`RTTI Base Class Descriptor at (0,-1,0,64)'
PUBLIC	??_R4?$small_any_policy@H@anyimpl@cvflann@@6B@	; cvflann::anyimpl::small_any_policy<int>::`RTTI Complete Object Locator'
PUBLIC	??_R1A@?0A@EA@?$big_any_policy@W4flann_algorithm_t@cvflann@@@anyimpl@cvflann@@8 ; cvflann::anyimpl::big_any_policy<enum cvflann::flann_algorithm_t>::`RTTI Base Class Descriptor at (0,-1,0,64)'
PUBLIC	??_R0?AU?$typed_base_any_policy@Uempty_any@anyimpl@cvflann@@@anyimpl@cvflann@@@8 ; cvflann::anyimpl::typed_base_any_policy<cvflann::anyimpl::empty_any> `RTTI Type Descriptor'
PUBLIC	??_R0?AU?$small_any_policy@M@anyimpl@cvflann@@@8 ; cvflann::anyimpl::small_any_policy<float> `RTTI Type Descriptor'
PUBLIC	??_R2?$big_any_policy@W4flann_algorithm_t@cvflann@@@anyimpl@cvflann@@8 ; cvflann::anyimpl::big_any_policy<enum cvflann::flann_algorithm_t>::`RTTI Base Class Array'
PUBLIC	??_R3?$small_any_policy@_N@anyimpl@cvflann@@8	; cvflann::anyimpl::small_any_policy<bool>::`RTTI Class Hierarchy Descriptor'
PUBLIC	??_7?$small_any_policy@I@anyimpl@cvflann@@6B@	; cvflann::anyimpl::small_any_policy<unsigned int>::`vftable'
PUBLIC	??_R4?$big_any_policy@W4flann_algorithm_t@cvflann@@@anyimpl@cvflann@@6B@ ; cvflann::anyimpl::big_any_policy<enum cvflann::flann_algorithm_t>::`RTTI Complete Object Locator'
PUBLIC	_CTA3?AVbad_array_new_length@std@@
PUBLIC	??_7bad_array_new_length@std@@6B@		; std::bad_array_new_length::`vftable'
PUBLIC	??_R0H@8					; int `RTTI Type Descriptor'
PUBLIC	??_R4?$big_any_policy@V?$basic_string@DU?$char_traits@D@std@@V?$allocator@D@2@@std@@@anyimpl@cvflann@@6B@ ; cvflann::anyimpl::big_any_policy<std::basic_string<char,std::char_traits<char>,std::allocator<char> > >::`RTTI Complete Object Locator'
PUBLIC	??_R1A@?0A@EA@exception@std@@8			; std::exception::`RTTI Base Class Descriptor at (0,-1,0,64)'
PUBLIC	??_R0I@8					; unsigned int `RTTI Type Descriptor'
PUBLIC	??_R1A@?0A@EA@?$small_any_policy@PEBD@anyimpl@cvflann@@8 ; cvflann::anyimpl::small_any_policy<char const *>::`RTTI Base Class Descriptor at (0,-1,0,64)'
PUBLIC	??_R3?$big_any_policy@W4flann_algorithm_t@cvflann@@@anyimpl@cvflann@@8 ; cvflann::anyimpl::big_any_policy<enum cvflann::flann_algorithm_t>::`RTTI Class Hierarchy Descriptor'
PUBLIC	??_R0?AU?$typed_base_any_policy@PEBD@anyimpl@cvflann@@@8 ; cvflann::anyimpl::typed_base_any_policy<char const *> `RTTI Type Descriptor'
PUBLIC	??_R1A@?0A@EA@bad_alloc@std@@8			; std::bad_alloc::`RTTI Base Class Descriptor at (0,-1,0,64)'
PUBLIC	??_R2?$typed_base_any_policy@W4flann_centers_init_t@cvflann@@@anyimpl@cvflann@@8 ; cvflann::anyimpl::typed_base_any_policy<enum cvflann::flann_centers_init_t>::`RTTI Base Class Array'
PUBLIC	??_R0?AU?$typed_base_any_policy@M@anyimpl@cvflann@@@8 ; cvflann::anyimpl::typed_base_any_policy<float> `RTTI Type Descriptor'
PUBLIC	??_R0?AU?$typed_base_any_policy@W4flann_algorithm_t@cvflann@@@anyimpl@cvflann@@@8 ; cvflann::anyimpl::typed_base_any_policy<enum cvflann::flann_algorithm_t> `RTTI Type Descriptor'
PUBLIC	??_R0?AW4flann_algorithm_t@cvflann@@@8		; enum cvflann::flann_algorithm_t `RTTI Type Descriptor'
PUBLIC	??_R4?$big_any_policy@W4flann_centers_init_t@cvflann@@@anyimpl@cvflann@@6B@ ; cvflann::anyimpl::big_any_policy<enum cvflann::flann_centers_init_t>::`RTTI Complete Object Locator'
PUBLIC	??_R3?$small_any_policy@I@anyimpl@cvflann@@8	; cvflann::anyimpl::small_any_policy<unsigned int>::`RTTI Class Hierarchy Descriptor'
PUBLIC	??_R2?$small_any_policy@PEBD@anyimpl@cvflann@@8	; cvflann::anyimpl::small_any_policy<char const *>::`RTTI Base Class Array'
PUBLIC	??_R0?AU?$typed_base_any_policy@W4flann_centers_init_t@cvflann@@@anyimpl@cvflann@@@8 ; cvflann::anyimpl::typed_base_any_policy<enum cvflann::flann_centers_init_t> `RTTI Type Descriptor'
PUBLIC	??_R2?$typed_base_any_policy@V?$basic_string@DU?$char_traits@D@std@@V?$allocator@D@2@@std@@@anyimpl@cvflann@@8 ; cvflann::anyimpl::typed_base_any_policy<std::basic_string<char,std::char_traits<char>,std::allocator<char> > >::`RTTI Base Class Array'
PUBLIC	??_R2?$small_any_policy@M@anyimpl@cvflann@@8	; cvflann::anyimpl::small_any_policy<float>::`RTTI Base Class Array'
PUBLIC	??_7base_any_policy@anyimpl@cvflann@@6B@	; cvflann::anyimpl::base_any_policy::`vftable'
PUBLIC	??_R3?$typed_base_any_policy@H@anyimpl@cvflann@@8 ; cvflann::anyimpl::typed_base_any_policy<int>::`RTTI Class Hierarchy Descriptor'
PUBLIC	??_7bad_alloc@std@@6B@				; std::bad_alloc::`vftable'
PUBLIC	??_R1A@?0A@EA@?$small_any_policy@_N@anyimpl@cvflann@@8 ; cvflann::anyimpl::small_any_policy<bool>::`RTTI Base Class Descriptor at (0,-1,0,64)'
PUBLIC	??_R2?$small_any_policy@I@anyimpl@cvflann@@8	; cvflann::anyimpl::small_any_policy<unsigned int>::`RTTI Base Class Array'
PUBLIC	??_R0?AU?$big_any_policy@W4flann_algorithm_t@cvflann@@@anyimpl@cvflann@@@8 ; cvflann::anyimpl::big_any_policy<enum cvflann::flann_algorithm_t> `RTTI Type Descriptor'
PUBLIC	??_R2exception@std@@8				; std::exception::`RTTI Base Class Array'
PUBLIC	??_R1A@?0A@EA@?$typed_base_any_policy@W4flann_algorithm_t@cvflann@@@anyimpl@cvflann@@8 ; cvflann::anyimpl::typed_base_any_policy<enum cvflann::flann_algorithm_t>::`RTTI Base Class Descriptor at (0,-1,0,64)'
PUBLIC	??_R3?$big_any_policy@W4flann_centers_init_t@cvflann@@@anyimpl@cvflann@@8 ; cvflann::anyimpl::big_any_policy<enum cvflann::flann_centers_init_t>::`RTTI Class Hierarchy Descriptor'
PUBLIC	??_R1A@?0A@EA@?$typed_base_any_policy@_N@anyimpl@cvflann@@8 ; cvflann::anyimpl::typed_base_any_policy<bool>::`RTTI Base Class Descriptor at (0,-1,0,64)'
PUBLIC	??_R0?AU?$typed_base_any_policy@I@anyimpl@cvflann@@@8 ; cvflann::anyimpl::typed_base_any_policy<unsigned int> `RTTI Type Descriptor'
PUBLIC	??_R1A@?0A@EA@?$big_any_policy@W4flann_centers_init_t@cvflann@@@anyimpl@cvflann@@8 ; cvflann::anyimpl::big_any_policy<enum cvflann::flann_centers_init_t>::`RTTI Base Class Descriptor at (0,-1,0,64)'
PUBLIC	??_R3?$typed_base_any_policy@M@anyimpl@cvflann@@8 ; cvflann::anyimpl::typed_base_any_policy<float>::`RTTI Class Hierarchy Descriptor'
PUBLIC	??_7?$big_any_policy@W4flann_centers_init_t@cvflann@@@anyimpl@cvflann@@6B@ ; cvflann::anyimpl::big_any_policy<enum cvflann::flann_centers_init_t>::`vftable'
PUBLIC	??_R0?AU?$typed_base_any_policy@V?$basic_string@DU?$char_traits@D@std@@V?$allocator@D@2@@std@@@anyimpl@cvflann@@@8 ; cvflann::anyimpl::typed_base_any_policy<std::basic_string<char,std::char_traits<char>,std::allocator<char> > > `RTTI Type Descriptor'
PUBLIC	??_R0?AU?$small_any_policy@I@anyimpl@cvflann@@@8 ; cvflann::anyimpl::small_any_policy<unsigned int> `RTTI Type Descriptor'
PUBLIC	??_R1A@?0A@EA@?$typed_base_any_policy@Uempty_any@anyimpl@cvflann@@@anyimpl@cvflann@@8 ; cvflann::anyimpl::typed_base_any_policy<cvflann::anyimpl::empty_any>::`RTTI Base Class Descriptor at (0,-1,0,64)'
PUBLIC	??_R1A@?0A@EA@?$typed_base_any_policy@W4flann_centers_init_t@cvflann@@@anyimpl@cvflann@@8 ; cvflann::anyimpl::typed_base_any_policy<enum cvflann::flann_centers_init_t>::`RTTI Base Class Descriptor at (0,-1,0,64)'
PUBLIC	??_R4base_any_policy@anyimpl@cvflann@@6B@	; cvflann::anyimpl::base_any_policy::`RTTI Complete Object Locator'
PUBLIC	??_7exception@std@@6B@				; std::exception::`vftable'
PUBLIC	??_R3?$big_any_policy@Uempty_any@anyimpl@cvflann@@@anyimpl@cvflann@@8 ; cvflann::anyimpl::big_any_policy<cvflann::anyimpl::empty_any>::`RTTI Class Hierarchy Descriptor'
PUBLIC	??_7?$small_any_policy@M@anyimpl@cvflann@@6B@	; cvflann::anyimpl::small_any_policy<float>::`vftable'
PUBLIC	??_R3?$small_any_policy@PEBD@anyimpl@cvflann@@8	; cvflann::anyimpl::small_any_policy<char const *>::`RTTI Class Hierarchy Descriptor'
PUBLIC	??_R2?$typed_base_any_policy@M@anyimpl@cvflann@@8 ; cvflann::anyimpl::typed_base_any_policy<float>::`RTTI Base Class Array'
PUBLIC	??_R3exception@std@@8				; std::exception::`RTTI Class Hierarchy Descriptor'
PUBLIC	_CT??_R0?AVbad_array_new_length@std@@@8??0bad_array_new_length@std@@QEAA@AEBV01@@Z24
PUBLIC	??_R0?AW4flann_centers_init_t@cvflann@@@8	; enum cvflann::flann_centers_init_t `RTTI Type Descriptor'
PUBLIC	??_R1A@?0A@EA@?$typed_base_any_policy@M@anyimpl@cvflann@@8 ; cvflann::anyimpl::typed_base_any_policy<float>::`RTTI Base Class Descriptor at (0,-1,0,64)'
PUBLIC	??_R2?$typed_base_any_policy@H@anyimpl@cvflann@@8 ; cvflann::anyimpl::typed_base_any_policy<int>::`RTTI Base Class Array'
PUBLIC	??_R0?AUempty_any@anyimpl@cvflann@@@8		; cvflann::anyimpl::empty_any `RTTI Type Descriptor'
PUBLIC	??_R0?AU?$big_any_policy@W4flann_centers_init_t@cvflann@@@anyimpl@cvflann@@@8 ; cvflann::anyimpl::big_any_policy<enum cvflann::flann_centers_init_t> `RTTI Type Descriptor'
PUBLIC	??_R1A@?0A@EA@?$big_any_policy@V?$basic_string@DU?$char_traits@D@std@@V?$allocator@D@2@@std@@@anyimpl@cvflann@@8 ; cvflann::anyimpl::big_any_policy<std::basic_string<char,std::char_traits<char>,std::allocator<char> > >::`RTTI Base Class Descriptor at (0,-1,0,64)'
PUBLIC	??_R1A@?0A@EA@?$typed_base_any_policy@PEBD@anyimpl@cvflann@@8 ; cvflann::anyimpl::typed_base_any_policy<char const *>::`RTTI Base Class Descriptor at (0,-1,0,64)'
PUBLIC	??_R2?$typed_base_any_policy@Uempty_any@anyimpl@cvflann@@@anyimpl@cvflann@@8 ; cvflann::anyimpl::typed_base_any_policy<cvflann::anyimpl::empty_any>::`RTTI Base Class Array'
PUBLIC	??_R2base_any_policy@anyimpl@cvflann@@8		; cvflann::anyimpl::base_any_policy::`RTTI Base Class Array'
PUBLIC	??_R0?AU?$typed_base_any_policy@H@anyimpl@cvflann@@@8 ; cvflann::anyimpl::typed_base_any_policy<int> `RTTI Type Descriptor'
PUBLIC	??_R3?$typed_base_any_policy@Uempty_any@anyimpl@cvflann@@@anyimpl@cvflann@@8 ; cvflann::anyimpl::typed_base_any_policy<cvflann::anyimpl::empty_any>::`RTTI Class Hierarchy Descriptor'
PUBLIC	??_R3?$typed_base_any_policy@PEBD@anyimpl@cvflann@@8 ; cvflann::anyimpl::typed_base_any_policy<char const *>::`RTTI Class Hierarchy Descriptor'
PUBLIC	??_R4bad_alloc@std@@6B@				; std::bad_alloc::`RTTI Complete Object Locator'
PUBLIC	??_R3?$small_any_policy@M@anyimpl@cvflann@@8	; cvflann::anyimpl::small_any_policy<float>::`RTTI Class Hierarchy Descriptor'
PUBLIC	??_R1A@?0A@EA@base_any_policy@anyimpl@cvflann@@8 ; cvflann::anyimpl::base_any_policy::`RTTI Base Class Descriptor at (0,-1,0,64)'
PUBLIC	??_R0?AU?$big_any_policy@Uempty_any@anyimpl@cvflann@@@anyimpl@cvflann@@@8 ; cvflann::anyimpl::big_any_policy<cvflann::anyimpl::empty_any> `RTTI Type Descriptor'
PUBLIC	??_R0?AU?$small_any_policy@PEBD@anyimpl@cvflann@@@8 ; cvflann::anyimpl::small_any_policy<char const *> `RTTI Type Descriptor'
PUBLIC	??_R3bad_array_new_length@std@@8		; std::bad_array_new_length::`RTTI Class Hierarchy Descriptor'
PUBLIC	_CT??_R0?AVbad_alloc@std@@@8??0bad_alloc@std@@QEAA@AEBV01@@Z24
PUBLIC	??_R3base_any_policy@anyimpl@cvflann@@8		; cvflann::anyimpl::base_any_policy::`RTTI Class Hierarchy Descriptor'
PUBLIC	??_R0?AU?$typed_base_any_policy@_N@anyimpl@cvflann@@@8 ; cvflann::anyimpl::typed_base_any_policy<bool> `RTTI Type Descriptor'
PUBLIC	??_7?$small_any_policy@H@anyimpl@cvflann@@6B@	; cvflann::anyimpl::small_any_policy<int>::`vftable'
PUBLIC	??_R3bad_alloc@std@@8				; std::bad_alloc::`RTTI Class Hierarchy Descriptor'
PUBLIC	??_R2?$typed_base_any_policy@_N@anyimpl@cvflann@@8 ; cvflann::anyimpl::typed_base_any_policy<bool>::`RTTI Base Class Array'
PUBLIC	??_7?$big_any_policy@W4flann_algorithm_t@cvflann@@@anyimpl@cvflann@@6B@ ; cvflann::anyimpl::big_any_policy<enum cvflann::flann_algorithm_t>::`vftable'
PUBLIC	??_R0?AV?$basic_string@DU?$char_traits@D@std@@V?$allocator@D@2@@std@@@8 ; std::basic_string<char,std::char_traits<char>,std::allocator<char> > `RTTI Type Descriptor'
PUBLIC	??_R3?$typed_base_any_policy@_N@anyimpl@cvflann@@8 ; cvflann::anyimpl::typed_base_any_policy<bool>::`RTTI Class Hierarchy Descriptor'
PUBLIC	??_R3?$typed_base_any_policy@W4flann_centers_init_t@cvflann@@@anyimpl@cvflann@@8 ; cvflann::anyimpl::typed_base_any_policy<enum cvflann::flann_centers_init_t>::`RTTI Class Hierarchy Descriptor'
PUBLIC	??_R0?AU?$small_any_policy@_N@anyimpl@cvflann@@@8 ; cvflann::anyimpl::small_any_policy<bool> `RTTI Type Descriptor'
PUBLIC	??_R0?AU?$small_any_policy@H@anyimpl@cvflann@@@8 ; cvflann::anyimpl::small_any_policy<int> `RTTI Type Descriptor'
PUBLIC	??_R0?AUbase_any_policy@anyimpl@cvflann@@@8	; cvflann::anyimpl::base_any_policy `RTTI Type Descriptor'
PUBLIC	??_R2?$small_any_policy@H@anyimpl@cvflann@@8	; cvflann::anyimpl::small_any_policy<int>::`RTTI Base Class Array'
PUBLIC	??_R4bad_array_new_length@std@@6B@		; std::bad_array_new_length::`RTTI Complete Object Locator'
PUBLIC	??_R2?$big_any_policy@W4flann_centers_init_t@cvflann@@@anyimpl@cvflann@@8 ; cvflann::anyimpl::big_any_policy<enum cvflann::flann_centers_init_t>::`RTTI Base Class Array'
PUBLIC	??_R2?$big_any_policy@V?$basic_string@DU?$char_traits@D@std@@V?$allocator@D@2@@std@@@anyimpl@cvflann@@8 ; cvflann::anyimpl::big_any_policy<std::basic_string<char,std::char_traits<char>,std::allocator<char> > >::`RTTI Base Class Array'
PUBLIC	??_R4?$small_any_policy@I@anyimpl@cvflann@@6B@	; cvflann::anyimpl::small_any_policy<unsigned int>::`RTTI Complete Object Locator'
PUBLIC	??_7?$big_any_policy@V?$basic_string@DU?$char_traits@D@std@@V?$allocator@D@2@@std@@@anyimpl@cvflann@@6B@ ; cvflann::anyimpl::big_any_policy<std::basic_string<char,std::char_traits<char>,std::allocator<char> > >::`vftable'
PUBLIC	??_R0?AU?$big_any_policy@V?$basic_string@DU?$char_traits@D@std@@V?$allocator@D@2@@std@@@anyimpl@cvflann@@@8 ; cvflann::anyimpl::big_any_policy<std::basic_string<char,std::char_traits<char>,std::allocator<char> > > `RTTI Type Descriptor'
PUBLIC	??_7?$small_any_policy@PEBD@anyimpl@cvflann@@6B@ ; cvflann::anyimpl::small_any_policy<char const *>::`vftable'
PUBLIC	??_R3?$typed_base_any_policy@I@anyimpl@cvflann@@8 ; cvflann::anyimpl::typed_base_any_policy<unsigned int>::`RTTI Class Hierarchy Descriptor'
PUBLIC	??_R2?$typed_base_any_policy@I@anyimpl@cvflann@@8 ; cvflann::anyimpl::typed_base_any_policy<unsigned int>::`RTTI Base Class Array'
PUBLIC	??_R1A@?0A@EA@bad_array_new_length@std@@8	; std::bad_array_new_length::`RTTI Base Class Descriptor at (0,-1,0,64)'
PUBLIC	_CT??_R0?AVexception@std@@@8??0exception@std@@QEAA@AEBV01@@Z24
PUBLIC	??_R3?$typed_base_any_policy@W4flann_algorithm_t@cvflann@@@anyimpl@cvflann@@8 ; cvflann::anyimpl::typed_base_any_policy<enum cvflann::flann_algorithm_t>::`RTTI Class Hierarchy Descriptor'
PUBLIC	_TI3?AVbad_array_new_length@std@@
PUBLIC	??_R2?$big_any_policy@Uempty_any@anyimpl@cvflann@@@anyimpl@cvflann@@8 ; cvflann::anyimpl::big_any_policy<cvflann::anyimpl::empty_any>::`RTTI Base Class Array'
PUBLIC	??_R1A@?0A@EA@?$big_any_policy@Uempty_any@anyimpl@cvflann@@@anyimpl@cvflann@@8 ; cvflann::anyimpl::big_any_policy<cvflann::anyimpl::empty_any>::`RTTI Base Class Descriptor at (0,-1,0,64)'
PUBLIC	??_R1A@?0A@EA@?$typed_base_any_policy@I@anyimpl@cvflann@@8 ; cvflann::anyimpl::typed_base_any_policy<unsigned int>::`RTTI Base Class Descriptor at (0,-1,0,64)'
PUBLIC	??_R0?AVexception@std@@@8			; std::exception `RTTI Type Descriptor'
PUBLIC	??_R2?$typed_base_any_policy@PEBD@anyimpl@cvflann@@8 ; cvflann::anyimpl::typed_base_any_policy<char const *>::`RTTI Base Class Array'
PUBLIC	??_R1A@?0A@EA@?$typed_base_any_policy@V?$basic_string@DU?$char_traits@D@std@@V?$allocator@D@2@@std@@@anyimpl@cvflann@@8 ; cvflann::anyimpl::typed_base_any_policy<std::basic_string<char,std::char_traits<char>,std::allocator<char> > >::`RTTI Base Class Descriptor at (0,-1,0,64)'
PUBLIC	??_R3?$typed_base_any_policy@V?$basic_string@DU?$char_traits@D@std@@V?$allocator@D@2@@std@@@anyimpl@cvflann@@8 ; cvflann::anyimpl::typed_base_any_policy<std::basic_string<char,std::char_traits<char>,std::allocator<char> > >::`RTTI Class Hierarchy Descriptor'
PUBLIC	??_R0_N@8					; bool `RTTI Type Descriptor'
PUBLIC	??_R1A@?0A@EA@?$small_any_policy@M@anyimpl@cvflann@@8 ; cvflann::anyimpl::small_any_policy<float>::`RTTI Base Class Descriptor at (0,-1,0,64)'
PUBLIC	??_R4?$small_any_policy@_N@anyimpl@cvflann@@6B@	; cvflann::anyimpl::small_any_policy<bool>::`RTTI Complete Object Locator'
PUBLIC	??_R3?$small_any_policy@H@anyimpl@cvflann@@8	; cvflann::anyimpl::small_any_policy<int>::`RTTI Class Hierarchy Descriptor'
PUBLIC	??_7?$big_any_policy@Uempty_any@anyimpl@cvflann@@@anyimpl@cvflann@@6B@ ; cvflann::anyimpl::big_any_policy<cvflann::anyimpl::empty_any>::`vftable'
PUBLIC	??_R0?AVbad_array_new_length@std@@@8		; std::bad_array_new_length `RTTI Type Descriptor'
PUBLIC	??_R4?$small_any_policy@PEBD@anyimpl@cvflann@@6B@ ; cvflann::anyimpl::small_any_policy<char const *>::`RTTI Complete Object Locator'
PUBLIC	??_R3?$big_any_policy@V?$basic_string@DU?$char_traits@D@std@@V?$allocator@D@2@@std@@@anyimpl@cvflann@@8 ; cvflann::anyimpl::big_any_policy<std::basic_string<char,std::char_traits<char>,std::allocator<char> > >::`RTTI Class Hierarchy Descriptor'
EXTRN	__imp_?imshow@cv@@YAXAEBV?$basic_string@DU?$char_traits@D@std@@V?$allocator@D@2@@std@@AEBV_InputArray@1@@Z:PROC
EXTRN	__imp__invalid_parameter_noinfo_noreturn:PROC
EXTRN	??_7type_info@@6B@:BYTE				; type_info::`vftable'
EXTRN	__imp___std_terminate:PROC
EXTRN	__imp__purecall:PROC
EXTRN	__imp___stdio_common_vfprintf:PROC
EXTRN	??3@YAXPEAX_K@Z:PROC				; operator delete
EXTRN	atexit:PROC
EXTRN	__imp_?_Getcvt@_Locinfo@std@@QEBA?AU_Cvtvec@@XZ:PROC
EXTRN	__imp_?_Getdays@_Locinfo@std@@QEBAPEBDXZ:PROC
EXTRN	__imp_?_Getmonths@_Locinfo@std@@QEBAPEBDXZ:PROC
EXTRN	__imp___std_exception_copy:PROC
EXTRN	??_M@YAXPEAX_K1P6AX0@Z@Z:PROC			; `eh vector destructor iterator'
EXTRN	__imp_?_W_Getdays@_Locinfo@std@@QEBAPEBGXZ:PROC
EXTRN	__imp_?_W_Getmonths@_Locinfo@std@@QEBAPEBGXZ:PROC
EXTRN	__imp_?_Xlength_error@std@@YAXPEBD@Z:PROC
EXTRN	__imp_?cerr@std@@3V?$basic_ostream@DU?$char_traits@D@std@@@1@A:BYTE
EXTRN	__imp_?rdstate@ios_base@std@@QEBAHXZ:PROC
EXTRN	__imp_?good@ios_base@std@@QEBA_NXZ:PROC
EXTRN	__imp_?flags@ios_base@std@@QEBAHXZ:PROC
EXTRN	__imp_?width@ios_base@std@@QEBA_JXZ:PROC
EXTRN	__imp_?width@ios_base@std@@QEAA_J_J@Z:PROC
EXTRN	__imp_?_Xout_of_range@std@@YAXPEBD@Z:PROC
EXTRN	__imp_?_Xbad_alloc@std@@YAXXZ:PROC
EXTRN	__imp_?uncaught_exception@std@@YA_NXZ:PROC
EXTRN	??2@YAPEAX_K@Z:PROC				; operator new
EXTRN	__imp___acrt_iob_func:PROC
EXTRN	__imp_calloc:PROC
EXTRN	__imp__Mbrtowc:PROC
EXTRN	??_V@YAXPEAX_K@Z:PROC				; operator delete[]
EXTRN	__imp___std_exception_destroy:PROC
EXTRN	__security_check_cookie:PROC
EXTRN	__imp___CxxFrameHandler4:PROC
EXTRN	_purecall:PROC
EXTRN	__imp_??6?$basic_ostream@DU?$char_traits@D@std@@@std@@QEAAAEAV01@I@Z:PROC
EXTRN	__imp_??6?$basic_ostream@DU?$char_traits@D@std@@@std@@QEAAAEAV01@H@Z:PROC
EXTRN	__imp_?fill@?$basic_ios@DU?$char_traits@D@std@@@std@@QEBADXZ:PROC
EXTRN	__imp_?rdbuf@?$basic_ios@DU?$char_traits@D@std@@@std@@QEBAPEAV?$basic_streambuf@DU?$char_traits@D@std@@@2@XZ:PROC
EXTRN	__imp_?setstate@?$basic_ios@DU?$char_traits@D@std@@@std@@QEAAXH_N@Z:PROC
EXTRN	__imp_?flush@?$basic_ostream@DU?$char_traits@D@std@@@std@@QEAAAEAV12@XZ:PROC
EXTRN	__imp_?_Osfx@?$basic_ostream@DU?$char_traits@D@std@@@std@@QEAAXXZ:PROC
EXTRN	__imp_?tie@?$basic_ios@DU?$char_traits@D@std@@@std@@QEBAPEAV?$basic_ostream@DU?$char_traits@D@std@@@2@XZ:PROC
EXTRN	__imp_?sputc@?$basic_streambuf@DU?$char_traits@D@std@@@std@@QEAAHD@Z:PROC
EXTRN	__imp_?sputn@?$basic_streambuf@DU?$char_traits@D@std@@@std@@QEAA_JPEBD_J@Z:PROC
EXTRN	__imp_??6?$basic_ostream@DU?$char_traits@D@std@@@std@@QEAAAEAV01@M@Z:PROC
EXTRN	__imp_??6?$basic_ostream@DU?$char_traits@D@std@@@std@@QEAAAEAV01@_N@Z:PROC
EXTRN	__imp_?waitKey@cv@@YAHH@Z:PROC
EXTRN	__imp_?fastFree@cv@@YAXPEAX@Z:PROC
EXTRN	__imp_?putText@cv@@YAXAEBV_InputOutputArray@1@AEBV?$basic_string@DU?$char_traits@D@std@@V?$allocator@D@2@@std@@V?$Point_@H@1@HNV?$Scalar_@N@1@HH_N@Z:PROC
EXTRN	__imp_?destroyWindow@cv@@YAXAEBV?$basic_string@DU?$char_traits@D@std@@V?$allocator@D@2@@std@@@Z:PROC
EXTRN	__imp_?deallocate@Mat@cv@@QEAAXXZ:PROC
EXTRN	__imp_?namedWindow@cv@@YAXAEBV?$basic_string@DU?$char_traits@D@std@@V?$allocator@D@2@@std@@H@Z:PROC
EXTRN	__imp_??0VideoCapture@cv@@QEAA@XZ:PROC
EXTRN	__imp_??1VideoCapture@cv@@UEAA@XZ:PROC
EXTRN	__imp_?open@VideoCapture@cv@@UEAA_NAEBV?$basic_string@DU?$char_traits@D@std@@V?$allocator@D@2@@std@@H@Z:PROC
EXTRN	__imp_?isOpened@VideoCapture@cv@@UEBA_NXZ:PROC
EXTRN	__imp_?release@VideoCapture@cv@@UEAAXXZ:PROC
EXTRN	__imp_?read@VideoCapture@cv@@UEAA_NAEBV_OutputArray@2@@Z:PROC
EXTRN	__imp_?get@VideoCapture@cv@@UEBANH@Z:PROC
;	COMDAT ??_R3?$big_any_policy@V?$basic_string@DU?$char_traits@D@std@@V?$allocator@D@2@@std@@@anyimpl@cvflann@@8
rdata$r	SEGMENT
??_R3?$big_any_policy@V?$basic_string@DU?$char_traits@D@std@@V?$allocator@D@2@@std@@@anyimpl@cvflann@@8 DD 00H ; cvflann::anyimpl::big_any_policy<std::basic_string<char,std::char_traits<char>,std::allocator<char> > >::`RTTI Class Hierarchy Descriptor'
	DD	00H
	DD	03H
	DD	imagerel ??_R2?$big_any_policy@V?$basic_string@DU?$char_traits@D@std@@V?$allocator@D@2@@std@@@anyimpl@cvflann@@8
rdata$r	ENDS
;	COMDAT ??_R4?$small_any_policy@PEBD@anyimpl@cvflann@@6B@
rdata$r	SEGMENT
??_R4?$small_any_policy@PEBD@anyimpl@cvflann@@6B@ DD 01H ; cvflann::anyimpl::small_any_policy<char const *>::`RTTI Complete Object Locator'
	DD	00H
	DD	00H
	DD	imagerel ??_R0?AU?$small_any_policy@PEBD@anyimpl@cvflann@@@8
	DD	imagerel ??_R3?$small_any_policy@PEBD@anyimpl@cvflann@@8
	DD	imagerel ??_R4?$small_any_policy@PEBD@anyimpl@cvflann@@6B@
rdata$r	ENDS
;	COMDAT ??_R0?AVbad_array_new_length@std@@@8
data$r	SEGMENT
??_R0?AVbad_array_new_length@std@@@8 DQ FLAT:??_7type_info@@6B@ ; std::bad_array_new_length `RTTI Type Descriptor'
	DQ	0000000000000000H
	DB	'.?AVbad_array_new_length@std@@', 00H
data$r	ENDS
;	COMDAT ??_7?$big_any_policy@Uempty_any@anyimpl@cvflann@@@anyimpl@cvflann@@6B@
CONST	SEGMENT
??_7?$big_any_policy@Uempty_any@anyimpl@cvflann@@@anyimpl@cvflann@@6B@ DQ FLAT:??_R4?$big_any_policy@Uempty_any@anyimpl@cvflann@@@anyimpl@cvflann@@6B@ ; cvflann::anyimpl::big_any_policy<cvflann::anyimpl::empty_any>::`vftable'
	DQ	FLAT:?static_delete@?$big_any_policy@Uempty_any@anyimpl@cvflann@@@anyimpl@cvflann@@UEAAXPEAPEAX@Z
	DQ	FLAT:?copy_from_value@?$big_any_policy@Uempty_any@anyimpl@cvflann@@@anyimpl@cvflann@@UEAAXPEBXPEAPEAX@Z
	DQ	FLAT:?clone@?$big_any_policy@Uempty_any@anyimpl@cvflann@@@anyimpl@cvflann@@UEAAXPEBQEAXPEAPEAX@Z
	DQ	FLAT:?move@?$big_any_policy@Uempty_any@anyimpl@cvflann@@@anyimpl@cvflann@@UEAAXPEBQEAXPEAPEAX@Z
	DQ	FLAT:?get_value@?$big_any_policy@Uempty_any@anyimpl@cvflann@@@anyimpl@cvflann@@UEAAPEBXPEBQEAX@Z
	DQ	FLAT:?get_value@?$big_any_policy@Uempty_any@anyimpl@cvflann@@@anyimpl@cvflann@@UEAAPEAXPEAPEAX@Z
	DQ	FLAT:?get_size@?$typed_base_any_policy@Uempty_any@anyimpl@cvflann@@@anyimpl@cvflann@@UEAA_KXZ
	DQ	FLAT:?type@?$typed_base_any_policy@Uempty_any@anyimpl@cvflann@@@anyimpl@cvflann@@UEAAAEBVtype_info@@XZ
	DQ	FLAT:?print@?$big_any_policy@Uempty_any@anyimpl@cvflann@@@anyimpl@cvflann@@UEAAXAEAV?$basic_ostream@DU?$char_traits@D@std@@@std@@PEBQEAX@Z
	DQ	FLAT:??_E?$big_any_policy@Uempty_any@anyimpl@cvflann@@@anyimpl@cvflann@@UEAAPEAXI@Z
CONST	ENDS
;	COMDAT ??_R3?$small_any_policy@H@anyimpl@cvflann@@8
rdata$r	SEGMENT
??_R3?$small_any_policy@H@anyimpl@cvflann@@8 DD 00H	; cvflann::anyimpl::small_any_policy<int>::`RTTI Class Hierarchy Descriptor'
	DD	00H
	DD	03H
	DD	imagerel ??_R2?$small_any_policy@H@anyimpl@cvflann@@8
rdata$r	ENDS
;	COMDAT ??_R4?$small_any_policy@_N@anyimpl@cvflann@@6B@
rdata$r	SEGMENT
??_R4?$small_any_policy@_N@anyimpl@cvflann@@6B@ DD 01H	; cvflann::anyimpl::small_any_policy<bool>::`RTTI Complete Object Locator'
	DD	00H
	DD	00H
	DD	imagerel ??_R0?AU?$small_any_policy@_N@anyimpl@cvflann@@@8
	DD	imagerel ??_R3?$small_any_policy@_N@anyimpl@cvflann@@8
	DD	imagerel ??_R4?$small_any_policy@_N@anyimpl@cvflann@@6B@
rdata$r	ENDS
;	COMDAT ??_R1A@?0A@EA@?$small_any_policy@M@anyimpl@cvflann@@8
rdata$r	SEGMENT
??_R1A@?0A@EA@?$small_any_policy@M@anyimpl@cvflann@@8 DD imagerel ??_R0?AU?$small_any_policy@M@anyimpl@cvflann@@@8 ; cvflann::anyimpl::small_any_policy<float>::`RTTI Base Class Descriptor at (0,-1,0,64)'
	DD	02H
	DD	00H
	DD	0ffffffffH
	DD	00H
	DD	040H
	DD	imagerel ??_R3?$small_any_policy@M@anyimpl@cvflann@@8
rdata$r	ENDS
;	COMDAT ??_R0_N@8
data$r	SEGMENT
??_R0_N@8 DQ	FLAT:??_7type_info@@6B@			; bool `RTTI Type Descriptor'
	DQ	0000000000000000H
	DB	'._N', 00H
data$r	ENDS
;	COMDAT ??_R3?$typed_base_any_policy@V?$basic_string@DU?$char_traits@D@std@@V?$allocator@D@2@@std@@@anyimpl@cvflann@@8
rdata$r	SEGMENT
??_R3?$typed_base_any_policy@V?$basic_string@DU?$char_traits@D@std@@V?$allocator@D@2@@std@@@anyimpl@cvflann@@8 DD 00H ; cvflann::anyimpl::typed_base_any_policy<std::basic_string<char,std::char_traits<char>,std::allocator<char> > >::`RTTI Class Hierarchy Descriptor'
	DD	00H
	DD	02H
	DD	imagerel ??_R2?$typed_base_any_policy@V?$basic_string@DU?$char_traits@D@std@@V?$allocator@D@2@@std@@@anyimpl@cvflann@@8
rdata$r	ENDS
;	COMDAT ??_R1A@?0A@EA@?$typed_base_any_policy@V?$basic_string@DU?$char_traits@D@std@@V?$allocator@D@2@@std@@@anyimpl@cvflann@@8
rdata$r	SEGMENT
??_R1A@?0A@EA@?$typed_base_any_policy@V?$basic_string@DU?$char_traits@D@std@@V?$allocator@D@2@@std@@@anyimpl@cvflann@@8 DD imagerel ??_R0?AU?$typed_base_any_policy@V?$basic_string@DU?$char_traits@D@std@@V?$allocator@D@2@@std@@@anyimpl@cvflann@@@8 ; cvflann::anyimpl::typed_base_any_policy<std::basic_string<char,std::char_traits<char>,std::allocator<char> > >::`RTTI Base Class Descriptor at (0,-1,0,64)'
	DD	01H
	DD	00H
	DD	0ffffffffH
	DD	00H
	DD	040H
	DD	imagerel ??_R3?$typed_base_any_policy@V?$basic_string@DU?$char_traits@D@std@@V?$allocator@D@2@@std@@@anyimpl@cvflann@@8
rdata$r	ENDS
;	COMDAT ??_R2?$typed_base_any_policy@PEBD@anyimpl@cvflann@@8
rdata$r	SEGMENT
??_R2?$typed_base_any_policy@PEBD@anyimpl@cvflann@@8 DD imagerel ??_R1A@?0A@EA@?$typed_base_any_policy@PEBD@anyimpl@cvflann@@8 ; cvflann::anyimpl::typed_base_any_policy<char const *>::`RTTI Base Class Array'
	DD	imagerel ??_R1A@?0A@EA@base_any_policy@anyimpl@cvflann@@8
	ORG $+3
rdata$r	ENDS
;	COMDAT ??_R0?AVexception@std@@@8
data$r	SEGMENT
??_R0?AVexception@std@@@8 DQ FLAT:??_7type_info@@6B@	; std::exception `RTTI Type Descriptor'
	DQ	0000000000000000H
	DB	'.?AVexception@std@@', 00H
data$r	ENDS
;	COMDAT ??_R1A@?0A@EA@?$typed_base_any_policy@I@anyimpl@cvflann@@8
rdata$r	SEGMENT
??_R1A@?0A@EA@?$typed_base_any_policy@I@anyimpl@cvflann@@8 DD imagerel ??_R0?AU?$typed_base_any_policy@I@anyimpl@cvflann@@@8 ; cvflann::anyimpl::typed_base_any_policy<unsigned int>::`RTTI Base Class Descriptor at (0,-1,0,64)'
	DD	01H
	DD	00H
	DD	0ffffffffH
	DD	00H
	DD	040H
	DD	imagerel ??_R3?$typed_base_any_policy@I@anyimpl@cvflann@@8
rdata$r	ENDS
;	COMDAT ??_R1A@?0A@EA@?$big_any_policy@Uempty_any@anyimpl@cvflann@@@anyimpl@cvflann@@8
rdata$r	SEGMENT
??_R1A@?0A@EA@?$big_any_policy@Uempty_any@anyimpl@cvflann@@@anyimpl@cvflann@@8 DD imagerel ??_R0?AU?$big_any_policy@Uempty_any@anyimpl@cvflann@@@anyimpl@cvflann@@@8 ; cvflann::anyimpl::big_any_policy<cvflann::anyimpl::empty_any>::`RTTI Base Class Descriptor at (0,-1,0,64)'
	DD	02H
	DD	00H
	DD	0ffffffffH
	DD	00H
	DD	040H
	DD	imagerel ??_R3?$big_any_policy@Uempty_any@anyimpl@cvflann@@@anyimpl@cvflann@@8
rdata$r	ENDS
;	COMDAT ??_R2?$big_any_policy@Uempty_any@anyimpl@cvflann@@@anyimpl@cvflann@@8
rdata$r	SEGMENT
??_R2?$big_any_policy@Uempty_any@anyimpl@cvflann@@@anyimpl@cvflann@@8 DD imagerel ??_R1A@?0A@EA@?$big_any_policy@Uempty_any@anyimpl@cvflann@@@anyimpl@cvflann@@8 ; cvflann::anyimpl::big_any_policy<cvflann::anyimpl::empty_any>::`RTTI Base Class Array'
	DD	imagerel ??_R1A@?0A@EA@?$typed_base_any_policy@Uempty_any@anyimpl@cvflann@@@anyimpl@cvflann@@8
	DD	imagerel ??_R1A@?0A@EA@base_any_policy@anyimpl@cvflann@@8
	ORG $+3
rdata$r	ENDS
;	COMDAT _TI3?AVbad_array_new_length@std@@
xdata$x	SEGMENT
_TI3?AVbad_array_new_length@std@@ DD 00H
	DD	imagerel ??1bad_array_new_length@std@@UEAA@XZ
	DD	00H
	DD	imagerel _CTA3?AVbad_array_new_length@std@@
xdata$x	ENDS
;	COMDAT ??_R3?$typed_base_any_policy@W4flann_algorithm_t@cvflann@@@anyimpl@cvflann@@8
rdata$r	SEGMENT
??_R3?$typed_base_any_policy@W4flann_algorithm_t@cvflann@@@anyimpl@cvflann@@8 DD 00H ; cvflann::anyimpl::typed_base_any_policy<enum cvflann::flann_algorithm_t>::`RTTI Class Hierarchy Descriptor'
	DD	00H
	DD	02H
	DD	imagerel ??_R2?$typed_base_any_policy@W4flann_algorithm_t@cvflann@@@anyimpl@cvflann@@8
rdata$r	ENDS
;	COMDAT _CT??_R0?AVexception@std@@@8??0exception@std@@QEAA@AEBV01@@Z24
xdata$x	SEGMENT
_CT??_R0?AVexception@std@@@8??0exception@std@@QEAA@AEBV01@@Z24 DD 00H
	DD	imagerel ??_R0?AVexception@std@@@8
	DD	00H
	DD	0ffffffffH
	ORG $+4
	DD	018H
	DD	imagerel ??0exception@std@@QEAA@AEBV01@@Z
xdata$x	ENDS
;	COMDAT ??_R1A@?0A@EA@bad_array_new_length@std@@8
rdata$r	SEGMENT
??_R1A@?0A@EA@bad_array_new_length@std@@8 DD imagerel ??_R0?AVbad_array_new_length@std@@@8 ; std::bad_array_new_length::`RTTI Base Class Descriptor at (0,-1,0,64)'
	DD	02H
	DD	00H
	DD	0ffffffffH
	DD	00H
	DD	040H
	DD	imagerel ??_R3bad_array_new_length@std@@8
rdata$r	ENDS
;	COMDAT ??_R2?$typed_base_any_policy@I@anyimpl@cvflann@@8
rdata$r	SEGMENT
??_R2?$typed_base_any_policy@I@anyimpl@cvflann@@8 DD imagerel ??_R1A@?0A@EA@?$typed_base_any_policy@I@anyimpl@cvflann@@8 ; cvflann::anyimpl::typed_base_any_policy<unsigned int>::`RTTI Base Class Array'
	DD	imagerel ??_R1A@?0A@EA@base_any_policy@anyimpl@cvflann@@8
	ORG $+3
rdata$r	ENDS
;	COMDAT ??_R3?$typed_base_any_policy@I@anyimpl@cvflann@@8
rdata$r	SEGMENT
??_R3?$typed_base_any_policy@I@anyimpl@cvflann@@8 DD 00H ; cvflann::anyimpl::typed_base_any_policy<unsigned int>::`RTTI Class Hierarchy Descriptor'
	DD	00H
	DD	02H
	DD	imagerel ??_R2?$typed_base_any_policy@I@anyimpl@cvflann@@8
rdata$r	ENDS
;	COMDAT ??_7?$small_any_policy@PEBD@anyimpl@cvflann@@6B@
CONST	SEGMENT
??_7?$small_any_policy@PEBD@anyimpl@cvflann@@6B@ DQ FLAT:??_R4?$small_any_policy@PEBD@anyimpl@cvflann@@6B@ ; cvflann::anyimpl::small_any_policy<char const *>::`vftable'
	DQ	FLAT:?static_delete@?$small_any_policy@PEBD@anyimpl@cvflann@@UEAAXPEAPEAX@Z
	DQ	FLAT:?copy_from_value@?$small_any_policy@PEBD@anyimpl@cvflann@@UEAAXPEBXPEAPEAX@Z
	DQ	FLAT:?clone@?$small_any_policy@PEBD@anyimpl@cvflann@@UEAAXPEBQEAXPEAPEAX@Z
	DQ	FLAT:?move@?$small_any_policy@PEBD@anyimpl@cvflann@@UEAAXPEBQEAXPEAPEAX@Z
	DQ	FLAT:?get_value@?$small_any_policy@PEBD@anyimpl@cvflann@@UEAAPEBXPEBQEAX@Z
	DQ	FLAT:?get_value@?$small_any_policy@PEBD@anyimpl@cvflann@@UEAAPEAXPEAPEAX@Z
	DQ	FLAT:?get_size@?$typed_base_any_policy@PEBD@anyimpl@cvflann@@UEAA_KXZ
	DQ	FLAT:?type@?$typed_base_any_policy@PEBD@anyimpl@cvflann@@UEAAAEBVtype_info@@XZ
	DQ	FLAT:?print@?$small_any_policy@PEBD@anyimpl@cvflann@@UEAAXAEAV?$basic_ostream@DU?$char_traits@D@std@@@std@@PEBQEAX@Z
	DQ	FLAT:??_E?$small_any_policy@PEBD@anyimpl@cvflann@@UEAAPEAXI@Z
CONST	ENDS
;	COMDAT ??_R0?AU?$big_any_policy@V?$basic_string@DU?$char_traits@D@std@@V?$allocator@D@2@@std@@@anyimpl@cvflann@@@8
data$r	SEGMENT
??_R0?AU?$big_any_policy@V?$basic_string@DU?$char_traits@D@std@@V?$allocator@D@2@@std@@@anyimpl@cvflann@@@8 DQ FLAT:??_7type_info@@6B@ ; cvflann::anyimpl::big_any_policy<std::basic_string<char,std::char_traits<char>,std::allocator<char> > > `RTTI Type Descriptor'
	DQ	0000000000000000H
	DB	'.?AU?$big_any_policy@V?$basic_string@DU?$char_traits@D@s'
	DB	'td@@V?$allocator@D@2@@std@@@anyimpl@cvflann@@', 00H
data$r	ENDS
;	COMDAT ??_7?$big_any_policy@V?$basic_string@DU?$char_traits@D@std@@V?$allocator@D@2@@std@@@anyimpl@cvflann@@6B@
CONST	SEGMENT
??_7?$big_any_policy@V?$basic_string@DU?$char_traits@D@std@@V?$allocator@D@2@@std@@@anyimpl@cvflann@@6B@ DQ FLAT:??_R4?$big_any_policy@V?$basic_string@DU?$char_traits@D@std@@V?$allocator@D@2@@std@@@anyimpl@cvflann@@6B@ ; cvflann::anyimpl::big_any_policy<std::basic_string<char,std::char_traits<char>,std::allocator<char> > >::`vftable'
	DQ	FLAT:?static_delete@?$big_any_policy@V?$basic_string@DU?$char_traits@D@std@@V?$allocator@D@2@@std@@@anyimpl@cvflann@@UEAAXPEAPEAX@Z
	DQ	FLAT:?copy_from_value@?$big_any_policy@V?$basic_string@DU?$char_traits@D@std@@V?$allocator@D@2@@std@@@anyimpl@cvflann@@UEAAXPEBXPEAPEAX@Z
	DQ	FLAT:?clone@?$big_any_policy@V?$basic_string@DU?$char_traits@D@std@@V?$allocator@D@2@@std@@@anyimpl@cvflann@@UEAAXPEBQEAXPEAPEAX@Z
	DQ	FLAT:?move@?$big_any_policy@V?$basic_string@DU?$char_traits@D@std@@V?$allocator@D@2@@std@@@anyimpl@cvflann@@UEAAXPEBQEAXPEAPEAX@Z
	DQ	FLAT:?get_value@?$big_any_policy@V?$basic_string@DU?$char_traits@D@std@@V?$allocator@D@2@@std@@@anyimpl@cvflann@@UEAAPEBXPEBQEAX@Z
	DQ	FLAT:?get_value@?$big_any_policy@V?$basic_string@DU?$char_traits@D@std@@V?$allocator@D@2@@std@@@anyimpl@cvflann@@UEAAPEAXPEAPEAX@Z
	DQ	FLAT:?get_size@?$typed_base_any_policy@V?$basic_string@DU?$char_traits@D@std@@V?$allocator@D@2@@std@@@anyimpl@cvflann@@UEAA_KXZ
	DQ	FLAT:?type@?$typed_base_any_policy@V?$basic_string@DU?$char_traits@D@std@@V?$allocator@D@2@@std@@@anyimpl@cvflann@@UEAAAEBVtype_info@@XZ
	DQ	FLAT:?print@?$big_any_policy@V?$basic_string@DU?$char_traits@D@std@@V?$allocator@D@2@@std@@@anyimpl@cvflann@@UEAAXAEAV?$basic_ostream@DU?$char_traits@D@std@@@std@@PEBQEAX@Z
	DQ	FLAT:??_E?$big_any_policy@V?$basic_string@DU?$char_traits@D@std@@V?$allocator@D@2@@std@@@anyimpl@cvflann@@UEAAPEAXI@Z
CONST	ENDS
;	COMDAT ??_R4?$small_any_policy@I@anyimpl@cvflann@@6B@
rdata$r	SEGMENT
??_R4?$small_any_policy@I@anyimpl@cvflann@@6B@ DD 01H	; cvflann::anyimpl::small_any_policy<unsigned int>::`RTTI Complete Object Locator'
	DD	00H
	DD	00H
	DD	imagerel ??_R0?AU?$small_any_policy@I@anyimpl@cvflann@@@8
	DD	imagerel ??_R3?$small_any_policy@I@anyimpl@cvflann@@8
	DD	imagerel ??_R4?$small_any_policy@I@anyimpl@cvflann@@6B@
rdata$r	ENDS
;	COMDAT ??_R2?$big_any_policy@V?$basic_string@DU?$char_traits@D@std@@V?$allocator@D@2@@std@@@anyimpl@cvflann@@8
rdata$r	SEGMENT
??_R2?$big_any_policy@V?$basic_string@DU?$char_traits@D@std@@V?$allocator@D@2@@std@@@anyimpl@cvflann@@8 DD imagerel ??_R1A@?0A@EA@?$big_any_policy@V?$basic_string@DU?$char_traits@D@std@@V?$allocator@D@2@@std@@@anyimpl@cvflann@@8 ; cvflann::anyimpl::big_any_policy<std::basic_string<char,std::char_traits<char>,std::allocator<char> > >::`RTTI Base Class Array'
	DD	imagerel ??_R1A@?0A@EA@?$typed_base_any_policy@V?$basic_string@DU?$char_traits@D@std@@V?$allocator@D@2@@std@@@anyimpl@cvflann@@8
	DD	imagerel ??_R1A@?0A@EA@base_any_policy@anyimpl@cvflann@@8
	ORG $+3
rdata$r	ENDS
;	COMDAT ??_R2?$big_any_policy@W4flann_centers_init_t@cvflann@@@anyimpl@cvflann@@8
rdata$r	SEGMENT
??_R2?$big_any_policy@W4flann_centers_init_t@cvflann@@@anyimpl@cvflann@@8 DD imagerel ??_R1A@?0A@EA@?$big_any_policy@W4flann_centers_init_t@cvflann@@@anyimpl@cvflann@@8 ; cvflann::anyimpl::big_any_policy<enum cvflann::flann_centers_init_t>::`RTTI Base Class Array'
	DD	imagerel ??_R1A@?0A@EA@?$typed_base_any_policy@W4flann_centers_init_t@cvflann@@@anyimpl@cvflann@@8
	DD	imagerel ??_R1A@?0A@EA@base_any_policy@anyimpl@cvflann@@8
	ORG $+3
rdata$r	ENDS
;	COMDAT ??_R4bad_array_new_length@std@@6B@
rdata$r	SEGMENT
??_R4bad_array_new_length@std@@6B@ DD 01H		; std::bad_array_new_length::`RTTI Complete Object Locator'
	DD	00H
	DD	00H
	DD	imagerel ??_R0?AVbad_array_new_length@std@@@8
	DD	imagerel ??_R3bad_array_new_length@std@@8
	DD	imagerel ??_R4bad_array_new_length@std@@6B@
rdata$r	ENDS
;	COMDAT ??_R2?$small_any_policy@H@anyimpl@cvflann@@8
rdata$r	SEGMENT
??_R2?$small_any_policy@H@anyimpl@cvflann@@8 DD imagerel ??_R1A@?0A@EA@?$small_any_policy@H@anyimpl@cvflann@@8 ; cvflann::anyimpl::small_any_policy<int>::`RTTI Base Class Array'
	DD	imagerel ??_R1A@?0A@EA@?$typed_base_any_policy@H@anyimpl@cvflann@@8
	DD	imagerel ??_R1A@?0A@EA@base_any_policy@anyimpl@cvflann@@8
	ORG $+3
rdata$r	ENDS
;	COMDAT ??_R0?AUbase_any_policy@anyimpl@cvflann@@@8
data$r	SEGMENT
??_R0?AUbase_any_policy@anyimpl@cvflann@@@8 DQ FLAT:??_7type_info@@6B@ ; cvflann::anyimpl::base_any_policy `RTTI Type Descriptor'
	DQ	0000000000000000H
	DB	'.?AUbase_any_policy@anyimpl@cvflann@@', 00H
data$r	ENDS
;	COMDAT ??_R0?AU?$small_any_policy@H@anyimpl@cvflann@@@8
data$r	SEGMENT
??_R0?AU?$small_any_policy@H@anyimpl@cvflann@@@8 DQ FLAT:??_7type_info@@6B@ ; cvflann::anyimpl::small_any_policy<int> `RTTI Type Descriptor'
	DQ	0000000000000000H
	DB	'.?AU?$small_any_policy@H@anyimpl@cvflann@@', 00H
data$r	ENDS
;	COMDAT ??_R0?AU?$small_any_policy@_N@anyimpl@cvflann@@@8
data$r	SEGMENT
??_R0?AU?$small_any_policy@_N@anyimpl@cvflann@@@8 DQ FLAT:??_7type_info@@6B@ ; cvflann::anyimpl::small_any_policy<bool> `RTTI Type Descriptor'
	DQ	0000000000000000H
	DB	'.?AU?$small_any_policy@_N@anyimpl@cvflann@@', 00H
data$r	ENDS
;	COMDAT ??_R3?$typed_base_any_policy@W4flann_centers_init_t@cvflann@@@anyimpl@cvflann@@8
rdata$r	SEGMENT
??_R3?$typed_base_any_policy@W4flann_centers_init_t@cvflann@@@anyimpl@cvflann@@8 DD 00H ; cvflann::anyimpl::typed_base_any_policy<enum cvflann::flann_centers_init_t>::`RTTI Class Hierarchy Descriptor'
	DD	00H
	DD	02H
	DD	imagerel ??_R2?$typed_base_any_policy@W4flann_centers_init_t@cvflann@@@anyimpl@cvflann@@8
rdata$r	ENDS
;	COMDAT ??_R3?$typed_base_any_policy@_N@anyimpl@cvflann@@8
rdata$r	SEGMENT
??_R3?$typed_base_any_policy@_N@anyimpl@cvflann@@8 DD 00H ; cvflann::anyimpl::typed_base_any_policy<bool>::`RTTI Class Hierarchy Descriptor'
	DD	00H
	DD	02H
	DD	imagerel ??_R2?$typed_base_any_policy@_N@anyimpl@cvflann@@8
rdata$r	ENDS
;	COMDAT ??_R0?AV?$basic_string@DU?$char_traits@D@std@@V?$allocator@D@2@@std@@@8
data$r	SEGMENT
??_R0?AV?$basic_string@DU?$char_traits@D@std@@V?$allocator@D@2@@std@@@8 DQ FLAT:??_7type_info@@6B@ ; std::basic_string<char,std::char_traits<char>,std::allocator<char> > `RTTI Type Descriptor'
	DQ	0000000000000000H
	DB	'.?AV?$basic_string@DU?$char_traits@D@std@@V?$allocator@D'
	DB	'@2@@std@@', 00H
data$r	ENDS
;	COMDAT ??_7?$big_any_policy@W4flann_algorithm_t@cvflann@@@anyimpl@cvflann@@6B@
CONST	SEGMENT
??_7?$big_any_policy@W4flann_algorithm_t@cvflann@@@anyimpl@cvflann@@6B@ DQ FLAT:??_R4?$big_any_policy@W4flann_algorithm_t@cvflann@@@anyimpl@cvflann@@6B@ ; cvflann::anyimpl::big_any_policy<enum cvflann::flann_algorithm_t>::`vftable'
	DQ	FLAT:?static_delete@?$big_any_policy@W4flann_algorithm_t@cvflann@@@anyimpl@cvflann@@UEAAXPEAPEAX@Z
	DQ	FLAT:?copy_from_value@?$big_any_policy@W4flann_algorithm_t@cvflann@@@anyimpl@cvflann@@UEAAXPEBXPEAPEAX@Z
	DQ	FLAT:?clone@?$big_any_policy@W4flann_algorithm_t@cvflann@@@anyimpl@cvflann@@UEAAXPEBQEAXPEAPEAX@Z
	DQ	FLAT:?move@?$big_any_policy@W4flann_algorithm_t@cvflann@@@anyimpl@cvflann@@UEAAXPEBQEAXPEAPEAX@Z
	DQ	FLAT:?get_value@?$big_any_policy@W4flann_algorithm_t@cvflann@@@anyimpl@cvflann@@UEAAPEBXPEBQEAX@Z
	DQ	FLAT:?get_value@?$big_any_policy@W4flann_algorithm_t@cvflann@@@anyimpl@cvflann@@UEAAPEAXPEAPEAX@Z
	DQ	FLAT:?get_size@?$typed_base_any_policy@W4flann_algorithm_t@cvflann@@@anyimpl@cvflann@@UEAA_KXZ
	DQ	FLAT:?type@?$typed_base_any_policy@W4flann_algorithm_t@cvflann@@@anyimpl@cvflann@@UEAAAEBVtype_info@@XZ
	DQ	FLAT:?print@?$big_any_policy@W4flann_algorithm_t@cvflann@@@anyimpl@cvflann@@UEAAXAEAV?$basic_ostream@DU?$char_traits@D@std@@@std@@PEBQEAX@Z
	DQ	FLAT:??_E?$big_any_policy@W4flann_algorithm_t@cvflann@@@anyimpl@cvflann@@UEAAPEAXI@Z
CONST	ENDS
;	COMDAT ??_R2?$typed_base_any_policy@_N@anyimpl@cvflann@@8
rdata$r	SEGMENT
??_R2?$typed_base_any_policy@_N@anyimpl@cvflann@@8 DD imagerel ??_R1A@?0A@EA@?$typed_base_any_policy@_N@anyimpl@cvflann@@8 ; cvflann::anyimpl::typed_base_any_policy<bool>::`RTTI Base Class Array'
	DD	imagerel ??_R1A@?0A@EA@base_any_policy@anyimpl@cvflann@@8
	ORG $+3
rdata$r	ENDS
;	COMDAT ??_R3bad_alloc@std@@8
rdata$r	SEGMENT
??_R3bad_alloc@std@@8 DD 00H				; std::bad_alloc::`RTTI Class Hierarchy Descriptor'
	DD	00H
	DD	02H
	DD	imagerel ??_R2bad_alloc@std@@8
rdata$r	ENDS
;	COMDAT ??_7?$small_any_policy@H@anyimpl@cvflann@@6B@
CONST	SEGMENT
??_7?$small_any_policy@H@anyimpl@cvflann@@6B@ DQ FLAT:??_R4?$small_any_policy@H@anyimpl@cvflann@@6B@ ; cvflann::anyimpl::small_any_policy<int>::`vftable'
	DQ	FLAT:?static_delete@?$small_any_policy@H@anyimpl@cvflann@@UEAAXPEAPEAX@Z
	DQ	FLAT:?copy_from_value@?$small_any_policy@H@anyimpl@cvflann@@UEAAXPEBXPEAPEAX@Z
	DQ	FLAT:?clone@?$small_any_policy@H@anyimpl@cvflann@@UEAAXPEBQEAXPEAPEAX@Z
	DQ	FLAT:?move@?$small_any_policy@H@anyimpl@cvflann@@UEAAXPEBQEAXPEAPEAX@Z
	DQ	FLAT:?get_value@?$small_any_policy@H@anyimpl@cvflann@@UEAAPEBXPEBQEAX@Z
	DQ	FLAT:?get_value@?$small_any_policy@H@anyimpl@cvflann@@UEAAPEAXPEAPEAX@Z
	DQ	FLAT:?get_size@?$typed_base_any_policy@H@anyimpl@cvflann@@UEAA_KXZ
	DQ	FLAT:?type@?$typed_base_any_policy@H@anyimpl@cvflann@@UEAAAEBVtype_info@@XZ
	DQ	FLAT:?print@?$small_any_policy@H@anyimpl@cvflann@@UEAAXAEAV?$basic_ostream@DU?$char_traits@D@std@@@std@@PEBQEAX@Z
	DQ	FLAT:??_E?$small_any_policy@H@anyimpl@cvflann@@UEAAPEAXI@Z
CONST	ENDS
;	COMDAT ??_R0?AU?$typed_base_any_policy@_N@anyimpl@cvflann@@@8
data$r	SEGMENT
??_R0?AU?$typed_base_any_policy@_N@anyimpl@cvflann@@@8 DQ FLAT:??_7type_info@@6B@ ; cvflann::anyimpl::typed_base_any_policy<bool> `RTTI Type Descriptor'
	DQ	0000000000000000H
	DB	'.?AU?$typed_base_any_policy@_N@anyimpl@cvflann@@', 00H
data$r	ENDS
;	COMDAT ??_R3base_any_policy@anyimpl@cvflann@@8
rdata$r	SEGMENT
??_R3base_any_policy@anyimpl@cvflann@@8 DD 00H		; cvflann::anyimpl::base_any_policy::`RTTI Class Hierarchy Descriptor'
	DD	00H
	DD	01H
	DD	imagerel ??_R2base_any_policy@anyimpl@cvflann@@8
rdata$r	ENDS
;	COMDAT _CT??_R0?AVbad_alloc@std@@@8??0bad_alloc@std@@QEAA@AEBV01@@Z24
xdata$x	SEGMENT
_CT??_R0?AVbad_alloc@std@@@8??0bad_alloc@std@@QEAA@AEBV01@@Z24 DD 010H
	DD	imagerel ??_R0?AVbad_alloc@std@@@8
	DD	00H
	DD	0ffffffffH
	ORG $+4
	DD	018H
	DD	imagerel ??0bad_alloc@std@@QEAA@AEBV01@@Z
xdata$x	ENDS
;	COMDAT ??_R3bad_array_new_length@std@@8
rdata$r	SEGMENT
??_R3bad_array_new_length@std@@8 DD 00H			; std::bad_array_new_length::`RTTI Class Hierarchy Descriptor'
	DD	00H
	DD	03H
	DD	imagerel ??_R2bad_array_new_length@std@@8
rdata$r	ENDS
;	COMDAT ??_R0?AU?$small_any_policy@PEBD@anyimpl@cvflann@@@8
data$r	SEGMENT
??_R0?AU?$small_any_policy@PEBD@anyimpl@cvflann@@@8 DQ FLAT:??_7type_info@@6B@ ; cvflann::anyimpl::small_any_policy<char const *> `RTTI Type Descriptor'
	DQ	0000000000000000H
	DB	'.?AU?$small_any_policy@PEBD@anyimpl@cvflann@@', 00H
data$r	ENDS
;	COMDAT ??_R0?AU?$big_any_policy@Uempty_any@anyimpl@cvflann@@@anyimpl@cvflann@@@8
data$r	SEGMENT
??_R0?AU?$big_any_policy@Uempty_any@anyimpl@cvflann@@@anyimpl@cvflann@@@8 DQ FLAT:??_7type_info@@6B@ ; cvflann::anyimpl::big_any_policy<cvflann::anyimpl::empty_any> `RTTI Type Descriptor'
	DQ	0000000000000000H
	DB	'.?AU?$big_any_policy@Uempty_any@anyimpl@cvflann@@@anyimp'
	DB	'l@cvflann@@', 00H
data$r	ENDS
;	COMDAT ??_R1A@?0A@EA@base_any_policy@anyimpl@cvflann@@8
rdata$r	SEGMENT
??_R1A@?0A@EA@base_any_policy@anyimpl@cvflann@@8 DD imagerel ??_R0?AUbase_any_policy@anyimpl@cvflann@@@8 ; cvflann::anyimpl::base_any_policy::`RTTI Base Class Descriptor at (0,-1,0,64)'
	DD	00H
	DD	00H
	DD	0ffffffffH
	DD	00H
	DD	040H
	DD	imagerel ??_R3base_any_policy@anyimpl@cvflann@@8
rdata$r	ENDS
;	COMDAT ??_R3?$small_any_policy@M@anyimpl@cvflann@@8
rdata$r	SEGMENT
??_R3?$small_any_policy@M@anyimpl@cvflann@@8 DD 00H	; cvflann::anyimpl::small_any_policy<float>::`RTTI Class Hierarchy Descriptor'
	DD	00H
	DD	03H
	DD	imagerel ??_R2?$small_any_policy@M@anyimpl@cvflann@@8
rdata$r	ENDS
;	COMDAT ??_R4bad_alloc@std@@6B@
rdata$r	SEGMENT
??_R4bad_alloc@std@@6B@ DD 01H				; std::bad_alloc::`RTTI Complete Object Locator'
	DD	00H
	DD	00H
	DD	imagerel ??_R0?AVbad_alloc@std@@@8
	DD	imagerel ??_R3bad_alloc@std@@8
	DD	imagerel ??_R4bad_alloc@std@@6B@
?piecewise_construct@std@@3Upiecewise_construct_t@1@B	ORG $+1 ; std::piecewise_construct
CONST	ENDS
;	COMDAT ??_R3?$typed_base_any_policy@PEBD@anyimpl@cvflann@@8
rdata$r	SEGMENT
??_R3?$typed_base_any_policy@PEBD@anyimpl@cvflann@@8 DD 00H ; cvflann::anyimpl::typed_base_any_policy<char const *>::`RTTI Class Hierarchy Descriptor'
	DD	00H
	DD	02H
	DD	imagerel ??_R2?$typed_base_any_policy@PEBD@anyimpl@cvflann@@8
rdata$r	ENDS
;	COMDAT ??_R3?$typed_base_any_policy@Uempty_any@anyimpl@cvflann@@@anyimpl@cvflann@@8
rdata$r	SEGMENT
??_R3?$typed_base_any_policy@Uempty_any@anyimpl@cvflann@@@anyimpl@cvflann@@8 DD 00H ; cvflann::anyimpl::typed_base_any_policy<cvflann::anyimpl::empty_any>::`RTTI Class Hierarchy Descriptor'
	DD	00H
	DD	02H
	DD	imagerel ??_R2?$typed_base_any_policy@Uempty_any@anyimpl@cvflann@@@anyimpl@cvflann@@8
rdata$r	ENDS
;	COMDAT ??_R0?AU?$typed_base_any_policy@H@anyimpl@cvflann@@@8
data$r	SEGMENT
??_R0?AU?$typed_base_any_policy@H@anyimpl@cvflann@@@8 DQ FLAT:??_7type_info@@6B@ ; cvflann::anyimpl::typed_base_any_policy<int> `RTTI Type Descriptor'
	DQ	0000000000000000H
	DB	'.?AU?$typed_base_any_policy@H@anyimpl@cvflann@@', 00H
data$r	ENDS
;	COMDAT ??_R2base_any_policy@anyimpl@cvflann@@8
rdata$r	SEGMENT
??_R2base_any_policy@anyimpl@cvflann@@8 DD imagerel ??_R1A@?0A@EA@base_any_policy@anyimpl@cvflann@@8 ; cvflann::anyimpl::base_any_policy::`RTTI Base Class Array'
	ORG $+3
rdata$r	ENDS
;	COMDAT ??_R2?$typed_base_any_policy@Uempty_any@anyimpl@cvflann@@@anyimpl@cvflann@@8
rdata$r	SEGMENT
??_R2?$typed_base_any_policy@Uempty_any@anyimpl@cvflann@@@anyimpl@cvflann@@8 DD imagerel ??_R1A@?0A@EA@?$typed_base_any_policy@Uempty_any@anyimpl@cvflann@@@anyimpl@cvflann@@8 ; cvflann::anyimpl::typed_base_any_policy<cvflann::anyimpl::empty_any>::`RTTI Base Class Array'
	DD	imagerel ??_R1A@?0A@EA@base_any_policy@anyimpl@cvflann@@8
	ORG $+3
rdata$r	ENDS
;	COMDAT ??_R1A@?0A@EA@?$typed_base_any_policy@PEBD@anyimpl@cvflann@@8
rdata$r	SEGMENT
??_R1A@?0A@EA@?$typed_base_any_policy@PEBD@anyimpl@cvflann@@8 DD imagerel ??_R0?AU?$typed_base_any_policy@PEBD@anyimpl@cvflann@@@8 ; cvflann::anyimpl::typed_base_any_policy<char const *>::`RTTI Base Class Descriptor at (0,-1,0,64)'
	DD	01H
	DD	00H
	DD	0ffffffffH
	DD	00H
	DD	040H
	DD	imagerel ??_R3?$typed_base_any_policy@PEBD@anyimpl@cvflann@@8
rdata$r	ENDS
;	COMDAT ??_R1A@?0A@EA@?$big_any_policy@V?$basic_string@DU?$char_traits@D@std@@V?$allocator@D@2@@std@@@anyimpl@cvflann@@8
rdata$r	SEGMENT
??_R1A@?0A@EA@?$big_any_policy@V?$basic_string@DU?$char_traits@D@std@@V?$allocator@D@2@@std@@@anyimpl@cvflann@@8 DD imagerel ??_R0?AU?$big_any_policy@V?$basic_string@DU?$char_traits@D@std@@V?$allocator@D@2@@std@@@anyimpl@cvflann@@@8 ; cvflann::anyimpl::big_any_policy<std::basic_string<char,std::char_traits<char>,std::allocator<char> > >::`RTTI Base Class Descriptor at (0,-1,0,64)'
	DD	02H
	DD	00H
	DD	0ffffffffH
	DD	00H
	DD	040H
	DD	imagerel ??_R3?$big_any_policy@V?$basic_string@DU?$char_traits@D@std@@V?$allocator@D@2@@std@@@anyimpl@cvflann@@8
rdata$r	ENDS
;	COMDAT ??_R0?AU?$big_any_policy@W4flann_centers_init_t@cvflann@@@anyimpl@cvflann@@@8
data$r	SEGMENT
??_R0?AU?$big_any_policy@W4flann_centers_init_t@cvflann@@@anyimpl@cvflann@@@8 DQ FLAT:??_7type_info@@6B@ ; cvflann::anyimpl::big_any_policy<enum cvflann::flann_centers_init_t> `RTTI Type Descriptor'
	DQ	0000000000000000H
	DB	'.?AU?$big_any_policy@W4flann_centers_init_t@cvflann@@@an'
	DB	'yimpl@cvflann@@', 00H
data$r	ENDS
;	COMDAT ??_R0?AUempty_any@anyimpl@cvflann@@@8
data$r	SEGMENT
??_R0?AUempty_any@anyimpl@cvflann@@@8 DQ FLAT:??_7type_info@@6B@ ; cvflann::anyimpl::empty_any `RTTI Type Descriptor'
	DQ	0000000000000000H
	DB	'.?AUempty_any@anyimpl@cvflann@@', 00H
data$r	ENDS
;	COMDAT ??_R2?$typed_base_any_policy@H@anyimpl@cvflann@@8
rdata$r	SEGMENT
??_R2?$typed_base_any_policy@H@anyimpl@cvflann@@8 DD imagerel ??_R1A@?0A@EA@?$typed_base_any_policy@H@anyimpl@cvflann@@8 ; cvflann::anyimpl::typed_base_any_policy<int>::`RTTI Base Class Array'
	DD	imagerel ??_R1A@?0A@EA@base_any_policy@anyimpl@cvflann@@8
	ORG $+3
rdata$r	ENDS
;	COMDAT ??_R1A@?0A@EA@?$typed_base_any_policy@M@anyimpl@cvflann@@8
rdata$r	SEGMENT
??_R1A@?0A@EA@?$typed_base_any_policy@M@anyimpl@cvflann@@8 DD imagerel ??_R0?AU?$typed_base_any_policy@M@anyimpl@cvflann@@@8 ; cvflann::anyimpl::typed_base_any_policy<float>::`RTTI Base Class Descriptor at (0,-1,0,64)'
	DD	01H
	DD	00H
	DD	0ffffffffH
	DD	00H
	DD	040H
	DD	imagerel ??_R3?$typed_base_any_policy@M@anyimpl@cvflann@@8
rdata$r	ENDS
;	COMDAT ??_R0?AW4flann_centers_init_t@cvflann@@@8
data$r	SEGMENT
??_R0?AW4flann_centers_init_t@cvflann@@@8 DQ FLAT:??_7type_info@@6B@ ; enum cvflann::flann_centers_init_t `RTTI Type Descriptor'
	DQ	0000000000000000H
	DB	'.?AW4flann_centers_init_t@cvflann@@', 00H
data$r	ENDS
;	COMDAT _CT??_R0?AVbad_array_new_length@std@@@8??0bad_array_new_length@std@@QEAA@AEBV01@@Z24
xdata$x	SEGMENT
_CT??_R0?AVbad_array_new_length@std@@@8??0bad_array_new_length@std@@QEAA@AEBV01@@Z24 DD 00H
	DD	imagerel ??_R0?AVbad_array_new_length@std@@@8
	DD	00H
	DD	0ffffffffH
	ORG $+4
	DD	018H
	DD	imagerel ??0bad_array_new_length@std@@QEAA@AEBV01@@Z
xdata$x	ENDS
;	COMDAT ??_R3exception@std@@8
rdata$r	SEGMENT
??_R3exception@std@@8 DD 00H				; std::exception::`RTTI Class Hierarchy Descriptor'
	DD	00H
	DD	01H
	DD	imagerel ??_R2exception@std@@8
rdata$r	ENDS
;	COMDAT ??_R2?$typed_base_any_policy@M@anyimpl@cvflann@@8
rdata$r	SEGMENT
??_R2?$typed_base_any_policy@M@anyimpl@cvflann@@8 DD imagerel ??_R1A@?0A@EA@?$typed_base_any_policy@M@anyimpl@cvflann@@8 ; cvflann::anyimpl::typed_base_any_policy<float>::`RTTI Base Class Array'
	DD	imagerel ??_R1A@?0A@EA@base_any_policy@anyimpl@cvflann@@8
	ORG $+3
rdata$r	ENDS
;	COMDAT ??_R3?$small_any_policy@PEBD@anyimpl@cvflann@@8
rdata$r	SEGMENT
??_R3?$small_any_policy@PEBD@anyimpl@cvflann@@8 DD 00H	; cvflann::anyimpl::small_any_policy<char const *>::`RTTI Class Hierarchy Descriptor'
	DD	00H
	DD	03H
	DD	imagerel ??_R2?$small_any_policy@PEBD@anyimpl@cvflann@@8
rdata$r	ENDS
;	COMDAT ??_7?$small_any_policy@M@anyimpl@cvflann@@6B@
CONST	SEGMENT
??_7?$small_any_policy@M@anyimpl@cvflann@@6B@ DQ FLAT:??_R4?$small_any_policy@M@anyimpl@cvflann@@6B@ ; cvflann::anyimpl::small_any_policy<float>::`vftable'
	DQ	FLAT:?static_delete@?$small_any_policy@M@anyimpl@cvflann@@UEAAXPEAPEAX@Z
	DQ	FLAT:?copy_from_value@?$small_any_policy@M@anyimpl@cvflann@@UEAAXPEBXPEAPEAX@Z
	DQ	FLAT:?clone@?$small_any_policy@M@anyimpl@cvflann@@UEAAXPEBQEAXPEAPEAX@Z
	DQ	FLAT:?move@?$small_any_policy@M@anyimpl@cvflann@@UEAAXPEBQEAXPEAPEAX@Z
	DQ	FLAT:?get_value@?$small_any_policy@M@anyimpl@cvflann@@UEAAPEBXPEBQEAX@Z
	DQ	FLAT:?get_value@?$small_any_policy@M@anyimpl@cvflann@@UEAAPEAXPEAPEAX@Z
	DQ	FLAT:?get_size@?$typed_base_any_policy@M@anyimpl@cvflann@@UEAA_KXZ
	DQ	FLAT:?type@?$typed_base_any_policy@M@anyimpl@cvflann@@UEAAAEBVtype_info@@XZ
	DQ	FLAT:?print@?$small_any_policy@M@anyimpl@cvflann@@UEAAXAEAV?$basic_ostream@DU?$char_traits@D@std@@@std@@PEBQEAX@Z
	DQ	FLAT:??_E?$small_any_policy@M@anyimpl@cvflann@@UEAAPEAXI@Z
CONST	ENDS
;	COMDAT ??_R3?$big_any_policy@Uempty_any@anyimpl@cvflann@@@anyimpl@cvflann@@8
rdata$r	SEGMENT
??_R3?$big_any_policy@Uempty_any@anyimpl@cvflann@@@anyimpl@cvflann@@8 DD 00H ; cvflann::anyimpl::big_any_policy<cvflann::anyimpl::empty_any>::`RTTI Class Hierarchy Descriptor'
	DD	00H
	DD	03H
	DD	imagerel ??_R2?$big_any_policy@Uempty_any@anyimpl@cvflann@@@anyimpl@cvflann@@8
rdata$r	ENDS
;	COMDAT ??_7exception@std@@6B@
CONST	SEGMENT
??_7exception@std@@6B@ DQ FLAT:??_R4exception@std@@6B@	; std::exception::`vftable'
	DQ	FLAT:??_Eexception@std@@UEAAPEAXI@Z
	DQ	FLAT:?what@exception@std@@UEBAPEBDXZ
CONST	ENDS
;	COMDAT ??_R4base_any_policy@anyimpl@cvflann@@6B@
rdata$r	SEGMENT
??_R4base_any_policy@anyimpl@cvflann@@6B@ DD 01H	; cvflann::anyimpl::base_any_policy::`RTTI Complete Object Locator'
	DD	00H
	DD	00H
	DD	imagerel ??_R0?AUbase_any_policy@anyimpl@cvflann@@@8
	DD	imagerel ??_R3base_any_policy@anyimpl@cvflann@@8
	DD	imagerel ??_R4base_any_policy@anyimpl@cvflann@@6B@
rdata$r	ENDS
;	COMDAT ??_R1A@?0A@EA@?$typed_base_any_policy@W4flann_centers_init_t@cvflann@@@anyimpl@cvflann@@8
rdata$r	SEGMENT
??_R1A@?0A@EA@?$typed_base_any_policy@W4flann_centers_init_t@cvflann@@@anyimpl@cvflann@@8 DD imagerel ??_R0?AU?$typed_base_any_policy@W4flann_centers_init_t@cvflann@@@anyimpl@cvflann@@@8 ; cvflann::anyimpl::typed_base_any_policy<enum cvflann::flann_centers_init_t>::`RTTI Base Class Descriptor at (0,-1,0,64)'
	DD	01H
	DD	00H
	DD	0ffffffffH
	DD	00H
	DD	040H
	DD	imagerel ??_R3?$typed_base_any_policy@W4flann_centers_init_t@cvflann@@@anyimpl@cvflann@@8
rdata$r	ENDS
;	COMDAT ??_R1A@?0A@EA@?$typed_base_any_policy@Uempty_any@anyimpl@cvflann@@@anyimpl@cvflann@@8
rdata$r	SEGMENT
??_R1A@?0A@EA@?$typed_base_any_policy@Uempty_any@anyimpl@cvflann@@@anyimpl@cvflann@@8 DD imagerel ??_R0?AU?$typed_base_any_policy@Uempty_any@anyimpl@cvflann@@@anyimpl@cvflann@@@8 ; cvflann::anyimpl::typed_base_any_policy<cvflann::anyimpl::empty_any>::`RTTI Base Class Descriptor at (0,-1,0,64)'
	DD	01H
	DD	00H
	DD	0ffffffffH
	DD	00H
	DD	040H
	DD	imagerel ??_R3?$typed_base_any_policy@Uempty_any@anyimpl@cvflann@@@anyimpl@cvflann@@8
rdata$r	ENDS
;	COMDAT ??_R0?AU?$small_any_policy@I@anyimpl@cvflann@@@8
data$r	SEGMENT
??_R0?AU?$small_any_policy@I@anyimpl@cvflann@@@8 DQ FLAT:??_7type_info@@6B@ ; cvflann::anyimpl::small_any_policy<unsigned int> `RTTI Type Descriptor'
	DQ	0000000000000000H
	DB	'.?AU?$small_any_policy@I@anyimpl@cvflann@@', 00H
data$r	ENDS
;	COMDAT ??_R0?AU?$typed_base_any_policy@V?$basic_string@DU?$char_traits@D@std@@V?$allocator@D@2@@std@@@anyimpl@cvflann@@@8
data$r	SEGMENT
??_R0?AU?$typed_base_any_policy@V?$basic_string@DU?$char_traits@D@std@@V?$allocator@D@2@@std@@@anyimpl@cvflann@@@8 DQ FLAT:??_7type_info@@6B@ ; cvflann::anyimpl::typed_base_any_policy<std::basic_string<char,std::char_traits<char>,std::allocator<char> > > `RTTI Type Descriptor'
	DQ	0000000000000000H
	DB	'.?AU?$typed_base_any_policy@V?$basic_string@DU?$char_tra'
	DB	'its@D@std@@V?$allocator@D@2@@std@@@anyimpl@cvflann@@', 00H
data$r	ENDS
;	COMDAT ??_7?$big_any_policy@W4flann_centers_init_t@cvflann@@@anyimpl@cvflann@@6B@
CONST	SEGMENT
??_7?$big_any_policy@W4flann_centers_init_t@cvflann@@@anyimpl@cvflann@@6B@ DQ FLAT:??_R4?$big_any_policy@W4flann_centers_init_t@cvflann@@@anyimpl@cvflann@@6B@ ; cvflann::anyimpl::big_any_policy<enum cvflann::flann_centers_init_t>::`vftable'
	DQ	FLAT:?static_delete@?$big_any_policy@W4flann_centers_init_t@cvflann@@@anyimpl@cvflann@@UEAAXPEAPEAX@Z
	DQ	FLAT:?copy_from_value@?$big_any_policy@W4flann_centers_init_t@cvflann@@@anyimpl@cvflann@@UEAAXPEBXPEAPEAX@Z
	DQ	FLAT:?clone@?$big_any_policy@W4flann_centers_init_t@cvflann@@@anyimpl@cvflann@@UEAAXPEBQEAXPEAPEAX@Z
	DQ	FLAT:?move@?$big_any_policy@W4flann_centers_init_t@cvflann@@@anyimpl@cvflann@@UEAAXPEBQEAXPEAPEAX@Z
	DQ	FLAT:?get_value@?$big_any_policy@W4flann_centers_init_t@cvflann@@@anyimpl@cvflann@@UEAAPEBXPEBQEAX@Z
	DQ	FLAT:?get_value@?$big_any_policy@W4flann_centers_init_t@cvflann@@@anyimpl@cvflann@@UEAAPEAXPEAPEAX@Z
	DQ	FLAT:?get_size@?$typed_base_any_policy@W4flann_centers_init_t@cvflann@@@anyimpl@cvflann@@UEAA_KXZ
	DQ	FLAT:?type@?$typed_base_any_policy@W4flann_centers_init_t@cvflann@@@anyimpl@cvflann@@UEAAAEBVtype_info@@XZ
	DQ	FLAT:?print@?$big_any_policy@W4flann_centers_init_t@cvflann@@@anyimpl@cvflann@@UEAAXAEAV?$basic_ostream@DU?$char_traits@D@std@@@std@@PEBQEAX@Z
	DQ	FLAT:??_E?$big_any_policy@W4flann_centers_init_t@cvflann@@@anyimpl@cvflann@@UEAAPEAXI@Z
CONST	ENDS
;	COMDAT ??_R3?$typed_base_any_policy@M@anyimpl@cvflann@@8
rdata$r	SEGMENT
??_R3?$typed_base_any_policy@M@anyimpl@cvflann@@8 DD 00H ; cvflann::anyimpl::typed_base_any_policy<float>::`RTTI Class Hierarchy Descriptor'
	DD	00H
	DD	02H
	DD	imagerel ??_R2?$typed_base_any_policy@M@anyimpl@cvflann@@8
rdata$r	ENDS
;	COMDAT ??_R1A@?0A@EA@?$big_any_policy@W4flann_centers_init_t@cvflann@@@anyimpl@cvflann@@8
rdata$r	SEGMENT
??_R1A@?0A@EA@?$big_any_policy@W4flann_centers_init_t@cvflann@@@anyimpl@cvflann@@8 DD imagerel ??_R0?AU?$big_any_policy@W4flann_centers_init_t@cvflann@@@anyimpl@cvflann@@@8 ; cvflann::anyimpl::big_any_policy<enum cvflann::flann_centers_init_t>::`RTTI Base Class Descriptor at (0,-1,0,64)'
	DD	02H
	DD	00H
	DD	0ffffffffH
	DD	00H
	DD	040H
	DD	imagerel ??_R3?$big_any_policy@W4flann_centers_init_t@cvflann@@@anyimpl@cvflann@@8
rdata$r	ENDS
;	COMDAT ??_R0?AU?$typed_base_any_policy@I@anyimpl@cvflann@@@8
data$r	SEGMENT
??_R0?AU?$typed_base_any_policy@I@anyimpl@cvflann@@@8 DQ FLAT:??_7type_info@@6B@ ; cvflann::anyimpl::typed_base_any_policy<unsigned int> `RTTI Type Descriptor'
	DQ	0000000000000000H
	DB	'.?AU?$typed_base_any_policy@I@anyimpl@cvflann@@', 00H
data$r	ENDS
;	COMDAT ??_R1A@?0A@EA@?$typed_base_any_policy@_N@anyimpl@cvflann@@8
rdata$r	SEGMENT
??_R1A@?0A@EA@?$typed_base_any_policy@_N@anyimpl@cvflann@@8 DD imagerel ??_R0?AU?$typed_base_any_policy@_N@anyimpl@cvflann@@@8 ; cvflann::anyimpl::typed_base_any_policy<bool>::`RTTI Base Class Descriptor at (0,-1,0,64)'
	DD	01H
	DD	00H
	DD	0ffffffffH
	DD	00H
	DD	040H
	DD	imagerel ??_R3?$typed_base_any_policy@_N@anyimpl@cvflann@@8
rdata$r	ENDS
;	COMDAT ??_R3?$big_any_policy@W4flann_centers_init_t@cvflann@@@anyimpl@cvflann@@8
rdata$r	SEGMENT
??_R3?$big_any_policy@W4flann_centers_init_t@cvflann@@@anyimpl@cvflann@@8 DD 00H ; cvflann::anyimpl::big_any_policy<enum cvflann::flann_centers_init_t>::`RTTI Class Hierarchy Descriptor'
	DD	00H
	DD	03H
	DD	imagerel ??_R2?$big_any_policy@W4flann_centers_init_t@cvflann@@@anyimpl@cvflann@@8
rdata$r	ENDS
;	COMDAT ??_R1A@?0A@EA@?$typed_base_any_policy@W4flann_algorithm_t@cvflann@@@anyimpl@cvflann@@8
rdata$r	SEGMENT
??_R1A@?0A@EA@?$typed_base_any_policy@W4flann_algorithm_t@cvflann@@@anyimpl@cvflann@@8 DD imagerel ??_R0?AU?$typed_base_any_policy@W4flann_algorithm_t@cvflann@@@anyimpl@cvflann@@@8 ; cvflann::anyimpl::typed_base_any_policy<enum cvflann::flann_algorithm_t>::`RTTI Base Class Descriptor at (0,-1,0,64)'
	DD	01H
	DD	00H
	DD	0ffffffffH
	DD	00H
	DD	040H
	DD	imagerel ??_R3?$typed_base_any_policy@W4flann_algorithm_t@cvflann@@@anyimpl@cvflann@@8
rdata$r	ENDS
;	COMDAT ??_R2exception@std@@8
rdata$r	SEGMENT
??_R2exception@std@@8 DD imagerel ??_R1A@?0A@EA@exception@std@@8 ; std::exception::`RTTI Base Class Array'
	ORG $+3
rdata$r	ENDS
;	COMDAT ??_R0?AU?$big_any_policy@W4flann_algorithm_t@cvflann@@@anyimpl@cvflann@@@8
data$r	SEGMENT
??_R0?AU?$big_any_policy@W4flann_algorithm_t@cvflann@@@anyimpl@cvflann@@@8 DQ FLAT:??_7type_info@@6B@ ; cvflann::anyimpl::big_any_policy<enum cvflann::flann_algorithm_t> `RTTI Type Descriptor'
	DQ	0000000000000000H
	DB	'.?AU?$big_any_policy@W4flann_algorithm_t@cvflann@@@anyim'
	DB	'pl@cvflann@@', 00H
data$r	ENDS
;	COMDAT ??_R2?$small_any_policy@I@anyimpl@cvflann@@8
rdata$r	SEGMENT
??_R2?$small_any_policy@I@anyimpl@cvflann@@8 DD imagerel ??_R1A@?0A@EA@?$small_any_policy@I@anyimpl@cvflann@@8 ; cvflann::anyimpl::small_any_policy<unsigned int>::`RTTI Base Class Array'
	DD	imagerel ??_R1A@?0A@EA@?$typed_base_any_policy@I@anyimpl@cvflann@@8
	DD	imagerel ??_R1A@?0A@EA@base_any_policy@anyimpl@cvflann@@8
	ORG $+3
rdata$r	ENDS
;	COMDAT ??_R1A@?0A@EA@?$small_any_policy@_N@anyimpl@cvflann@@8
rdata$r	SEGMENT
??_R1A@?0A@EA@?$small_any_policy@_N@anyimpl@cvflann@@8 DD imagerel ??_R0?AU?$small_any_policy@_N@anyimpl@cvflann@@@8 ; cvflann::anyimpl::small_any_policy<bool>::`RTTI Base Class Descriptor at (0,-1,0,64)'
	DD	02H
	DD	00H
	DD	0ffffffffH
	DD	00H
	DD	040H
	DD	imagerel ??_R3?$small_any_policy@_N@anyimpl@cvflann@@8
rdata$r	ENDS
;	COMDAT ??_7bad_alloc@std@@6B@
CONST	SEGMENT
??_7bad_alloc@std@@6B@ DQ FLAT:??_R4bad_alloc@std@@6B@	; std::bad_alloc::`vftable'
	DQ	FLAT:??_Ebad_alloc@std@@UEAAPEAXI@Z
	DQ	FLAT:?what@exception@std@@UEBAPEBDXZ
CONST	ENDS
;	COMDAT ??_R3?$typed_base_any_policy@H@anyimpl@cvflann@@8
rdata$r	SEGMENT
??_R3?$typed_base_any_policy@H@anyimpl@cvflann@@8 DD 00H ; cvflann::anyimpl::typed_base_any_policy<int>::`RTTI Class Hierarchy Descriptor'
	DD	00H
	DD	02H
	DD	imagerel ??_R2?$typed_base_any_policy@H@anyimpl@cvflann@@8
rdata$r	ENDS
;	COMDAT ??_7base_any_policy@anyimpl@cvflann@@6B@
CONST	SEGMENT
??_7base_any_policy@anyimpl@cvflann@@6B@ DQ FLAT:??_R4base_any_policy@anyimpl@cvflann@@6B@ ; cvflann::anyimpl::base_any_policy::`vftable'
	DQ	FLAT:_purecall
	DQ	FLAT:_purecall
	DQ	FLAT:_purecall
	DQ	FLAT:_purecall
	DQ	FLAT:_purecall
	DQ	FLAT:_purecall
	DQ	FLAT:_purecall
	DQ	FLAT:_purecall
	DQ	FLAT:_purecall
	DQ	FLAT:??_Ebase_any_policy@anyimpl@cvflann@@UEAAPEAXI@Z
CONST	ENDS
;	COMDAT ??_R2?$small_any_policy@M@anyimpl@cvflann@@8
rdata$r	SEGMENT
??_R2?$small_any_policy@M@anyimpl@cvflann@@8 DD imagerel ??_R1A@?0A@EA@?$small_any_policy@M@anyimpl@cvflann@@8 ; cvflann::anyimpl::small_any_policy<float>::`RTTI Base Class Array'
	DD	imagerel ??_R1A@?0A@EA@?$typed_base_any_policy@M@anyimpl@cvflann@@8
	DD	imagerel ??_R1A@?0A@EA@base_any_policy@anyimpl@cvflann@@8
	ORG $+3
rdata$r	ENDS
;	COMDAT ??_R2?$typed_base_any_policy@V?$basic_string@DU?$char_traits@D@std@@V?$allocator@D@2@@std@@@anyimpl@cvflann@@8
rdata$r	SEGMENT
??_R2?$typed_base_any_policy@V?$basic_string@DU?$char_traits@D@std@@V?$allocator@D@2@@std@@@anyimpl@cvflann@@8 DD imagerel ??_R1A@?0A@EA@?$typed_base_any_policy@V?$basic_string@DU?$char_traits@D@std@@V?$allocator@D@2@@std@@@anyimpl@cvflann@@8 ; cvflann::anyimpl::typed_base_any_policy<std::basic_string<char,std::char_traits<char>,std::allocator<char> > >::`RTTI Base Class Array'
	DD	imagerel ??_R1A@?0A@EA@base_any_policy@anyimpl@cvflann@@8
	ORG $+3
rdata$r	ENDS
;	COMDAT ??_R0?AU?$typed_base_any_policy@W4flann_centers_init_t@cvflann@@@anyimpl@cvflann@@@8
data$r	SEGMENT
??_R0?AU?$typed_base_any_policy@W4flann_centers_init_t@cvflann@@@anyimpl@cvflann@@@8 DQ FLAT:??_7type_info@@6B@ ; cvflann::anyimpl::typed_base_any_policy<enum cvflann::flann_centers_init_t> `RTTI Type Descriptor'
	DQ	0000000000000000H
	DB	'.?AU?$typed_base_any_policy@W4flann_centers_init_t@cvfla'
	DB	'nn@@@anyimpl@cvflann@@', 00H
data$r	ENDS
;	COMDAT ??_R2?$small_any_policy@PEBD@anyimpl@cvflann@@8
rdata$r	SEGMENT
??_R2?$small_any_policy@PEBD@anyimpl@cvflann@@8 DD imagerel ??_R1A@?0A@EA@?$small_any_policy@PEBD@anyimpl@cvflann@@8 ; cvflann::anyimpl::small_any_policy<char const *>::`RTTI Base Class Array'
	DD	imagerel ??_R1A@?0A@EA@?$typed_base_any_policy@PEBD@anyimpl@cvflann@@8
	DD	imagerel ??_R1A@?0A@EA@base_any_policy@anyimpl@cvflann@@8
	ORG $+3
rdata$r	ENDS
;	COMDAT ??_R3?$small_any_policy@I@anyimpl@cvflann@@8
rdata$r	SEGMENT
??_R3?$small_any_policy@I@anyimpl@cvflann@@8 DD 00H	; cvflann::anyimpl::small_any_policy<unsigned int>::`RTTI Class Hierarchy Descriptor'
	DD	00H
	DD	03H
	DD	imagerel ??_R2?$small_any_policy@I@anyimpl@cvflann@@8
rdata$r	ENDS
;	COMDAT ??_R4?$big_any_policy@W4flann_centers_init_t@cvflann@@@anyimpl@cvflann@@6B@
rdata$r	SEGMENT
??_R4?$big_any_policy@W4flann_centers_init_t@cvflann@@@anyimpl@cvflann@@6B@ DD 01H ; cvflann::anyimpl::big_any_policy<enum cvflann::flann_centers_init_t>::`RTTI Complete Object Locator'
	DD	00H
	DD	00H
	DD	imagerel ??_R0?AU?$big_any_policy@W4flann_centers_init_t@cvflann@@@anyimpl@cvflann@@@8
	DD	imagerel ??_R3?$big_any_policy@W4flann_centers_init_t@cvflann@@@anyimpl@cvflann@@8
	DD	imagerel ??_R4?$big_any_policy@W4flann_centers_init_t@cvflann@@@anyimpl@cvflann@@6B@
rdata$r	ENDS
;	COMDAT ??_R0?AW4flann_algorithm_t@cvflann@@@8
data$r	SEGMENT
??_R0?AW4flann_algorithm_t@cvflann@@@8 DQ FLAT:??_7type_info@@6B@ ; enum cvflann::flann_algorithm_t `RTTI Type Descriptor'
	DQ	0000000000000000H
	DB	'.?AW4flann_algorithm_t@cvflann@@', 00H
data$r	ENDS
;	COMDAT ??_R0?AU?$typed_base_any_policy@W4flann_algorithm_t@cvflann@@@anyimpl@cvflann@@@8
data$r	SEGMENT
??_R0?AU?$typed_base_any_policy@W4flann_algorithm_t@cvflann@@@anyimpl@cvflann@@@8 DQ FLAT:??_7type_info@@6B@ ; cvflann::anyimpl::typed_base_any_policy<enum cvflann::flann_algorithm_t> `RTTI Type Descriptor'
	DQ	0000000000000000H
	DB	'.?AU?$typed_base_any_policy@W4flann_algorithm_t@cvflann@'
	DB	'@@anyimpl@cvflann@@', 00H
data$r	ENDS
;	COMDAT ??_R0?AU?$typed_base_any_policy@M@anyimpl@cvflann@@@8
data$r	SEGMENT
??_R0?AU?$typed_base_any_policy@M@anyimpl@cvflann@@@8 DQ FLAT:??_7type_info@@6B@ ; cvflann::anyimpl::typed_base_any_policy<float> `RTTI Type Descriptor'
	DQ	0000000000000000H
	DB	'.?AU?$typed_base_any_policy@M@anyimpl@cvflann@@', 00H
data$r	ENDS
;	COMDAT ??_R2?$typed_base_any_policy@W4flann_centers_init_t@cvflann@@@anyimpl@cvflann@@8
rdata$r	SEGMENT
??_R2?$typed_base_any_policy@W4flann_centers_init_t@cvflann@@@anyimpl@cvflann@@8 DD imagerel ??_R1A@?0A@EA@?$typed_base_any_policy@W4flann_centers_init_t@cvflann@@@anyimpl@cvflann@@8 ; cvflann::anyimpl::typed_base_any_policy<enum cvflann::flann_centers_init_t>::`RTTI Base Class Array'
	DD	imagerel ??_R1A@?0A@EA@base_any_policy@anyimpl@cvflann@@8
	ORG $+3
rdata$r	ENDS
;	COMDAT ??_R1A@?0A@EA@bad_alloc@std@@8
rdata$r	SEGMENT
??_R1A@?0A@EA@bad_alloc@std@@8 DD imagerel ??_R0?AVbad_alloc@std@@@8 ; std::bad_alloc::`RTTI Base Class Descriptor at (0,-1,0,64)'
	DD	01H
	DD	00H
	DD	0ffffffffH
	DD	00H
	DD	040H
	DD	imagerel ??_R3bad_alloc@std@@8
rdata$r	ENDS
;	COMDAT ??_R0?AU?$typed_base_any_policy@PEBD@anyimpl@cvflann@@@8
data$r	SEGMENT
??_R0?AU?$typed_base_any_policy@PEBD@anyimpl@cvflann@@@8 DQ FLAT:??_7type_info@@6B@ ; cvflann::anyimpl::typed_base_any_policy<char const *> `RTTI Type Descriptor'
	DQ	0000000000000000H
	DB	'.?AU?$typed_base_any_policy@PEBD@anyimpl@cvflann@@', 00H
data$r	ENDS
;	COMDAT ??_R3?$big_any_policy@W4flann_algorithm_t@cvflann@@@anyimpl@cvflann@@8
rdata$r	SEGMENT
??_R3?$big_any_policy@W4flann_algorithm_t@cvflann@@@anyimpl@cvflann@@8 DD 00H ; cvflann::anyimpl::big_any_policy<enum cvflann::flann_algorithm_t>::`RTTI Class Hierarchy Descriptor'
	DD	00H
	DD	03H
	DD	imagerel ??_R2?$big_any_policy@W4flann_algorithm_t@cvflann@@@anyimpl@cvflann@@8
rdata$r	ENDS
;	COMDAT ??_R1A@?0A@EA@?$small_any_policy@PEBD@anyimpl@cvflann@@8
rdata$r	SEGMENT
??_R1A@?0A@EA@?$small_any_policy@PEBD@anyimpl@cvflann@@8 DD imagerel ??_R0?AU?$small_any_policy@PEBD@anyimpl@cvflann@@@8 ; cvflann::anyimpl::small_any_policy<char const *>::`RTTI Base Class Descriptor at (0,-1,0,64)'
	DD	02H
	DD	00H
	DD	0ffffffffH
	DD	00H
	DD	040H
	DD	imagerel ??_R3?$small_any_policy@PEBD@anyimpl@cvflann@@8
rdata$r	ENDS
;	COMDAT ??_R0I@8
data$r	SEGMENT
??_R0I@8 DQ	FLAT:??_7type_info@@6B@			; unsigned int `RTTI Type Descriptor'
	DQ	0000000000000000H
	DB	'.I', 00H
data$r	ENDS
;	COMDAT ??_R1A@?0A@EA@exception@std@@8
rdata$r	SEGMENT
??_R1A@?0A@EA@exception@std@@8 DD imagerel ??_R0?AVexception@std@@@8 ; std::exception::`RTTI Base Class Descriptor at (0,-1,0,64)'
	DD	00H
	DD	00H
	DD	0ffffffffH
	DD	00H
	DD	040H
	DD	imagerel ??_R3exception@std@@8
rdata$r	ENDS
;	COMDAT ??_R4?$big_any_policy@V?$basic_string@DU?$char_traits@D@std@@V?$allocator@D@2@@std@@@anyimpl@cvflann@@6B@
rdata$r	SEGMENT
??_R4?$big_any_policy@V?$basic_string@DU?$char_traits@D@std@@V?$allocator@D@2@@std@@@anyimpl@cvflann@@6B@ DD 01H ; cvflann::anyimpl::big_any_policy<std::basic_string<char,std::char_traits<char>,std::allocator<char> > >::`RTTI Complete Object Locator'
	DD	00H
	DD	00H
	DD	imagerel ??_R0?AU?$big_any_policy@V?$basic_string@DU?$char_traits@D@std@@V?$allocator@D@2@@std@@@anyimpl@cvflann@@@8
	DD	imagerel ??_R3?$big_any_policy@V?$basic_string@DU?$char_traits@D@std@@V?$allocator@D@2@@std@@@anyimpl@cvflann@@8
	DD	imagerel ??_R4?$big_any_policy@V?$basic_string@DU?$char_traits@D@std@@V?$allocator@D@2@@std@@@anyimpl@cvflann@@6B@
rdata$r	ENDS
;	COMDAT ??_R0H@8
data$r	SEGMENT
??_R0H@8 DQ	FLAT:??_7type_info@@6B@			; int `RTTI Type Descriptor'
	DQ	0000000000000000H
	DB	'.H', 00H
data$r	ENDS
;	COMDAT ??_7bad_array_new_length@std@@6B@
CONST	SEGMENT
??_7bad_array_new_length@std@@6B@ DQ FLAT:??_R4bad_array_new_length@std@@6B@ ; std::bad_array_new_length::`vftable'
	DQ	FLAT:??_Ebad_array_new_length@std@@UEAAPEAXI@Z
	DQ	FLAT:?what@exception@std@@UEBAPEBDXZ
CONST	ENDS
;	COMDAT _CTA3?AVbad_array_new_length@std@@
xdata$x	SEGMENT
_CTA3?AVbad_array_new_length@std@@ DD 03H
	DD	imagerel _CT??_R0?AVbad_array_new_length@std@@@8??0bad_array_new_length@std@@QEAA@AEBV01@@Z24
	DD	imagerel _CT??_R0?AVbad_alloc@std@@@8??0bad_alloc@std@@QEAA@AEBV01@@Z24
	DD	imagerel _CT??_R0?AVexception@std@@@8??0exception@std@@QEAA@AEBV01@@Z24
xdata$x	ENDS
;	COMDAT ??_R4?$big_any_policy@W4flann_algorithm_t@cvflann@@@anyimpl@cvflann@@6B@
rdata$r	SEGMENT
??_R4?$big_any_policy@W4flann_algorithm_t@cvflann@@@anyimpl@cvflann@@6B@ DD 01H ; cvflann::anyimpl::big_any_policy<enum cvflann::flann_algorithm_t>::`RTTI Complete Object Locator'
	DD	00H
	DD	00H
	DD	imagerel ??_R0?AU?$big_any_policy@W4flann_algorithm_t@cvflann@@@anyimpl@cvflann@@@8
	DD	imagerel ??_R3?$big_any_policy@W4flann_algorithm_t@cvflann@@@anyimpl@cvflann@@8
	DD	imagerel ??_R4?$big_any_policy@W4flann_algorithm_t@cvflann@@@anyimpl@cvflann@@6B@
rdata$r	ENDS
;	COMDAT ??_7?$small_any_policy@I@anyimpl@cvflann@@6B@
CONST	SEGMENT
??_7?$small_any_policy@I@anyimpl@cvflann@@6B@ DQ FLAT:??_R4?$small_any_policy@I@anyimpl@cvflann@@6B@ ; cvflann::anyimpl::small_any_policy<unsigned int>::`vftable'
	DQ	FLAT:?static_delete@?$small_any_policy@I@anyimpl@cvflann@@UEAAXPEAPEAX@Z
	DQ	FLAT:?copy_from_value@?$small_any_policy@I@anyimpl@cvflann@@UEAAXPEBXPEAPEAX@Z
	DQ	FLAT:?clone@?$small_any_policy@I@anyimpl@cvflann@@UEAAXPEBQEAXPEAPEAX@Z
	DQ	FLAT:?move@?$small_any_policy@I@anyimpl@cvflann@@UEAAXPEBQEAXPEAPEAX@Z
	DQ	FLAT:?get_value@?$small_any_policy@I@anyimpl@cvflann@@UEAAPEBXPEBQEAX@Z
	DQ	FLAT:?get_value@?$small_any_policy@I@anyimpl@cvflann@@UEAAPEAXPEAPEAX@Z
	DQ	FLAT:?get_size@?$typed_base_any_policy@I@anyimpl@cvflann@@UEAA_KXZ
	DQ	FLAT:?type@?$typed_base_any_policy@I@anyimpl@cvflann@@UEAAAEBVtype_info@@XZ
	DQ	FLAT:?print@?$small_any_policy@I@anyimpl@cvflann@@UEAAXAEAV?$basic_ostream@DU?$char_traits@D@std@@@std@@PEBQEAX@Z
	DQ	FLAT:??_E?$small_any_policy@I@anyimpl@cvflann@@UEAAPEAXI@Z
CONST	ENDS
;	COMDAT ??_R3?$small_any_policy@_N@anyimpl@cvflann@@8
rdata$r	SEGMENT
??_R3?$small_any_policy@_N@anyimpl@cvflann@@8 DD 00H	; cvflann::anyimpl::small_any_policy<bool>::`RTTI Class Hierarchy Descriptor'
	DD	00H
	DD	03H
	DD	imagerel ??_R2?$small_any_policy@_N@anyimpl@cvflann@@8
rdata$r	ENDS
;	COMDAT ??_R2?$big_any_policy@W4flann_algorithm_t@cvflann@@@anyimpl@cvflann@@8
rdata$r	SEGMENT
??_R2?$big_any_policy@W4flann_algorithm_t@cvflann@@@anyimpl@cvflann@@8 DD imagerel ??_R1A@?0A@EA@?$big_any_policy@W4flann_algorithm_t@cvflann@@@anyimpl@cvflann@@8 ; cvflann::anyimpl::big_any_policy<enum cvflann::flann_algorithm_t>::`RTTI Base Class Array'
	DD	imagerel ??_R1A@?0A@EA@?$typed_base_any_policy@W4flann_algorithm_t@cvflann@@@anyimpl@cvflann@@8
	DD	imagerel ??_R1A@?0A@EA@base_any_policy@anyimpl@cvflann@@8
	ORG $+3
rdata$r	ENDS
;	COMDAT ??_R0?AU?$small_any_policy@M@anyimpl@cvflann@@@8
data$r	SEGMENT
??_R0?AU?$small_any_policy@M@anyimpl@cvflann@@@8 DQ FLAT:??_7type_info@@6B@ ; cvflann::anyimpl::small_any_policy<float> `RTTI Type Descriptor'
	DQ	0000000000000000H
	DB	'.?AU?$small_any_policy@M@anyimpl@cvflann@@', 00H
data$r	ENDS
;	COMDAT ??_R0?AU?$typed_base_any_policy@Uempty_any@anyimpl@cvflann@@@anyimpl@cvflann@@@8
data$r	SEGMENT
??_R0?AU?$typed_base_any_policy@Uempty_any@anyimpl@cvflann@@@anyimpl@cvflann@@@8 DQ FLAT:??_7type_info@@6B@ ; cvflann::anyimpl::typed_base_any_policy<cvflann::anyimpl::empty_any> `RTTI Type Descriptor'
	DQ	0000000000000000H
	DB	'.?AU?$typed_base_any_policy@Uempty_any@anyimpl@cvflann@@'
	DB	'@anyimpl@cvflann@@', 00H
data$r	ENDS
;	COMDAT ??_R1A@?0A@EA@?$big_any_policy@W4flann_algorithm_t@cvflann@@@anyimpl@cvflann@@8
rdata$r	SEGMENT
??_R1A@?0A@EA@?$big_any_policy@W4flann_algorithm_t@cvflann@@@anyimpl@cvflann@@8 DD imagerel ??_R0?AU?$big_any_policy@W4flann_algorithm_t@cvflann@@@anyimpl@cvflann@@@8 ; cvflann::anyimpl::big_any_policy<enum cvflann::flann_algorithm_t>::`RTTI Base Class Descriptor at (0,-1,0,64)'
	DD	02H
	DD	00H
	DD	0ffffffffH
	DD	00H
	DD	040H
	DD	imagerel ??_R3?$big_any_policy@W4flann_algorithm_t@cvflann@@@anyimpl@cvflann@@8
rdata$r	ENDS
;	COMDAT ??_R4?$small_any_policy@H@anyimpl@cvflann@@6B@
rdata$r	SEGMENT
??_R4?$small_any_policy@H@anyimpl@cvflann@@6B@ DD 01H	; cvflann::anyimpl::small_any_policy<int>::`RTTI Complete Object Locator'
	DD	00H
	DD	00H
	DD	imagerel ??_R0?AU?$small_any_policy@H@anyimpl@cvflann@@@8
	DD	imagerel ??_R3?$small_any_policy@H@anyimpl@cvflann@@8
	DD	imagerel ??_R4?$small_any_policy@H@anyimpl@cvflann@@6B@
rdata$r	ENDS
;	COMDAT ??_R1A@?0A@EA@?$small_any_policy@I@anyimpl@cvflann@@8
rdata$r	SEGMENT
??_R1A@?0A@EA@?$small_any_policy@I@anyimpl@cvflann@@8 DD imagerel ??_R0?AU?$small_any_policy@I@anyimpl@cvflann@@@8 ; cvflann::anyimpl::small_any_policy<unsigned int>::`RTTI Base Class Descriptor at (0,-1,0,64)'
	DD	02H
	DD	00H
	DD	0ffffffffH
	DD	00H
	DD	040H
	DD	imagerel ??_R3?$small_any_policy@I@anyimpl@cvflann@@8
rdata$r	ENDS
;	COMDAT ??_R1A@?0A@EA@?$typed_base_any_policy@H@anyimpl@cvflann@@8
rdata$r	SEGMENT
??_R1A@?0A@EA@?$typed_base_any_policy@H@anyimpl@cvflann@@8 DD imagerel ??_R0?AU?$typed_base_any_policy@H@anyimpl@cvflann@@@8 ; cvflann::anyimpl::typed_base_any_policy<int>::`RTTI Base Class Descriptor at (0,-1,0,64)'
	DD	01H
	DD	00H
	DD	0ffffffffH
	DD	00H
	DD	040H
	DD	imagerel ??_R3?$typed_base_any_policy@H@anyimpl@cvflann@@8
rdata$r	ENDS
;	COMDAT ??_R1A@?0A@EA@?$small_any_policy@H@anyimpl@cvflann@@8
rdata$r	SEGMENT
??_R1A@?0A@EA@?$small_any_policy@H@anyimpl@cvflann@@8 DD imagerel ??_R0?AU?$small_any_policy@H@anyimpl@cvflann@@@8 ; cvflann::anyimpl::small_any_policy<int>::`RTTI Base Class Descriptor at (0,-1,0,64)'
	DD	02H
	DD	00H
	DD	0ffffffffH
	DD	00H
	DD	040H
	DD	imagerel ??_R3?$small_any_policy@H@anyimpl@cvflann@@8
rdata$r	ENDS
;	COMDAT ??_R2bad_alloc@std@@8
rdata$r	SEGMENT
??_R2bad_alloc@std@@8 DD imagerel ??_R1A@?0A@EA@bad_alloc@std@@8 ; std::bad_alloc::`RTTI Base Class Array'
	DD	imagerel ??_R1A@?0A@EA@exception@std@@8
	ORG $+3
rdata$r	ENDS
;	COMDAT ??_R0M@8
data$r	SEGMENT
??_R0M@8 DQ	FLAT:??_7type_info@@6B@			; float `RTTI Type Descriptor'
	DQ	0000000000000000H
	DB	'.M', 00H
data$r	ENDS
;	COMDAT ??_C@_0BA@JFNIOLAK@string?5too?5long@
CONST	SEGMENT
??_C@_0BA@JFNIOLAK@string?5too?5long@ DB 'string too long', 00H ; `string'
CONST	ENDS
;	COMDAT ??_C@_1BK@MHIKGOKE@?$AA?3?$AAA?$AAM?$AA?3?$AAa?$AAm?$AA?3?$AAP?$AAM?$AA?3?$AAp?$AAm@
CONST	SEGMENT
??_C@_1BK@MHIKGOKE@?$AA?3?$AAA?$AAM?$AA?3?$AAa?$AAm?$AA?3?$AAP?$AAM?$AA?3?$AAp?$AAm@ DB ':'
	DB	00H, 'A', 00H, 'M', 00H, ':', 00H, 'a', 00H, 'm', 00H, ':', 00H
	DB	'P', 00H, 'M', 00H, ':', 00H, 'p', 00H, 'm', 00H, 00H, 00H ; `string'
CONST	ENDS
;	COMDAT ??_C@_0BI@CFPLBAOH@invalid?5string?5position@
CONST	SEGMENT
??_C@_0BI@CFPLBAOH@invalid?5string?5position@ DB 'invalid string position'
	DB	00H						; `string'
CONST	ENDS
;	COMDAT ??_R2?$typed_base_any_policy@W4flann_algorithm_t@cvflann@@@anyimpl@cvflann@@8
rdata$r	SEGMENT
??_R2?$typed_base_any_policy@W4flann_algorithm_t@cvflann@@@anyimpl@cvflann@@8 DD imagerel ??_R1A@?0A@EA@?$typed_base_any_policy@W4flann_algorithm_t@cvflann@@@anyimpl@cvflann@@8 ; cvflann::anyimpl::typed_base_any_policy<enum cvflann::flann_algorithm_t>::`RTTI Base Class Array'
	DD	imagerel ??_R1A@?0A@EA@base_any_policy@anyimpl@cvflann@@8
	ORG $+3
rdata$r	ENDS
;	COMDAT ??_C@_0N@LPFKKEBD@?3AM?3am?3PM?3pm@
CONST	SEGMENT
??_C@_0N@LPFKKEBD@?3AM?3am?3PM?3pm@ DB ':AM:am:PM:pm', 00H ; `string'
CONST	ENDS
;	COMDAT ??_C@_0BC@MEHHJOD@N?5de?5matriculas?3?5@
CONST	SEGMENT
??_C@_0BC@MEHHJOD@N?5de?5matriculas?3?5@ DB 'N de matriculas: ', 00H ; `string'
CONST	ENDS
;	COMDAT ??_C@_08JJLIBGIM@77?9QR?998@
CONST	SEGMENT
??_C@_08JJLIBGIM@77?9QR?998@ DB '77-QR-98', 00H		; `string'
CONST	ENDS
;	COMDAT ??_C@_0M@NHHODHJD@Matricula?3?5@
CONST	SEGMENT
??_C@_0M@NHHODHJD@Matricula?3?5@ DB 'Matricula: ', 00H	; `string'
CONST	ENDS
;	COMDAT ??_C@_01KMDKNFGN@?1@
CONST	SEGMENT
??_C@_01KMDKNFGN@?1@ DB '/', 00H			; `string'
CONST	ENDS
;	COMDAT ??_C@_07LFLALKLI@FRAME?3?5@
CONST	SEGMENT
??_C@_07LFLALKLI@FRAME?3?5@ DB 'FRAME: ', 00H		; `string'
CONST	ENDS
;	COMDAT ??_C@_0CL@JDABLFJH@Frame?5?$CFd?3?5A?5matricula?5n?C?$KDo?5foi?5@
CONST	SEGMENT
??_C@_0CL@JDABLFJH@Frame?5?$CFd?3?5A?5matricula?5n?C?$KDo?5foi?5@ DB 'Fra'
	DB	'me %d: A matricula n', 0c3H, 0a3H, 'o foi detectada.', 0aH, 00H ; `string'
CONST	ENDS
;	COMDAT ??_C@_0BD@FNBPBDIB@Fase?53?5concluida?6?6@
CONST	SEGMENT
??_C@_0BD@FNBPBDIB@Fase?53?5concluida?6?6@ DB 'Fase 3 concluida', 0aH, 0aH
	DB	00H						; `string'
CONST	ENDS
;	COMDAT ??_C@_0BC@EKELLDGB@Fase?52?5concluida?6@
CONST	SEGMENT
??_C@_0BC@EKELLDGB@Fase?52?5concluida?6@ DB 'Fase 2 concluida', 0aH, 00H ; `string'
CONST	ENDS
;	COMDAT ??_C@_08EGGIHDDP@gray?4pgm@
CONST	SEGMENT
??_C@_08EGGIHDDP@gray?4pgm@ DB 'gray.pgm', 00H		; `string'
CONST	ENDS
;	COMDAT ??_C@_02LDNLGICJ@VC@
CONST	SEGMENT
??_C@_02LDNLGICJ@VC@ DB 'VC', 00H			; `string'
CONST	ENDS
;	COMDAT ??_C@_0CG@GGBHFKB@Erro?5ao?5abrir?5o?5ficheiro?5de?5v?o?$LP@
CONST	SEGMENT
??_C@_0CG@GGBHFKB@Erro?5ao?5abrir?5o?5ficheiro?5de?5v?o?$LP@ DB 'Erro ao '
	DB	'abrir o ficheiro de v', 0efH, 0bfH, 0bdH, 'deo!', 0aH, 00H ; `string'
CONST	ENDS
;	COMDAT ??_C@_0L@NMCHEKHG@video1?4mp4@
CONST	SEGMENT
??_C@_0L@NMCHEKHG@video1?4mp4@ DB 'video1.mp4', 00H	; `string'
CONST	ENDS
;	COMDAT ??_R0?AVbad_alloc@std@@@8
data$r	SEGMENT
??_R0?AVbad_alloc@std@@@8 DQ FLAT:??_7type_info@@6B@	; std::bad_alloc `RTTI Type Descriptor'
	DQ	0000000000000000H
	DB	'.?AVbad_alloc@std@@', 00H
data$r	ENDS
;	COMDAT ??_7?$small_any_policy@_N@anyimpl@cvflann@@6B@
CONST	SEGMENT
??_7?$small_any_policy@_N@anyimpl@cvflann@@6B@ DQ FLAT:??_R4?$small_any_policy@_N@anyimpl@cvflann@@6B@ ; cvflann::anyimpl::small_any_policy<bool>::`vftable'
	DQ	FLAT:?static_delete@?$small_any_policy@_N@anyimpl@cvflann@@UEAAXPEAPEAX@Z
	DQ	FLAT:?copy_from_value@?$small_any_policy@_N@anyimpl@cvflann@@UEAAXPEBXPEAPEAX@Z
	DQ	FLAT:?clone@?$small_any_policy@_N@anyimpl@cvflann@@UEAAXPEBQEAXPEAPEAX@Z
	DQ	FLAT:?move@?$small_any_policy@_N@anyimpl@cvflann@@UEAAXPEBQEAXPEAPEAX@Z
	DQ	FLAT:?get_value@?$small_any_policy@_N@anyimpl@cvflann@@UEAAPEBXPEBQEAX@Z
	DQ	FLAT:?get_value@?$small_any_policy@_N@anyimpl@cvflann@@UEAAPEAXPEAPEAX@Z
	DQ	FLAT:?get_size@?$typed_base_any_policy@_N@anyimpl@cvflann@@UEAA_KXZ
	DQ	FLAT:?type@?$typed_base_any_policy@_N@anyimpl@cvflann@@UEAAAEBVtype_info@@XZ
	DQ	FLAT:?print@?$small_any_policy@_N@anyimpl@cvflann@@UEAAXAEAV?$basic_ostream@DU?$char_traits@D@std@@@std@@PEBQEAX@Z
	DQ	FLAT:??_E?$small_any_policy@_N@anyimpl@cvflann@@UEAAPEAXI@Z
CONST	ENDS
;	COMDAT ??_C@_0M@LLFGKPEG@?$FLempty_any?$FN@
CONST	SEGMENT
??_C@_0M@LLFGKPEG@?$FLempty_any?$FN@ DB '[empty_any]', 00H ; `string'
CONST	ENDS
;	COMDAT ??_R2bad_array_new_length@std@@8
rdata$r	SEGMENT
??_R2bad_array_new_length@std@@8 DD imagerel ??_R1A@?0A@EA@bad_array_new_length@std@@8 ; std::bad_array_new_length::`RTTI Base Class Array'
	DD	imagerel ??_R1A@?0A@EA@bad_alloc@std@@8
	DD	imagerel ??_R1A@?0A@EA@exception@std@@8
	ORG $+3
rdata$r	ENDS
;	COMDAT ??_R2?$small_any_policy@_N@anyimpl@cvflann@@8
rdata$r	SEGMENT
??_R2?$small_any_policy@_N@anyimpl@cvflann@@8 DD imagerel ??_R1A@?0A@EA@?$small_any_policy@_N@anyimpl@cvflann@@8 ; cvflann::anyimpl::small_any_policy<bool>::`RTTI Base Class Array'
	DD	imagerel ??_R1A@?0A@EA@?$typed_base_any_policy@_N@anyimpl@cvflann@@8
	DD	imagerel ??_R1A@?0A@EA@base_any_policy@anyimpl@cvflann@@8
	ORG $+3
rdata$r	ENDS
;	COMDAT ??_R4exception@std@@6B@
rdata$r	SEGMENT
??_R4exception@std@@6B@ DD 01H				; std::exception::`RTTI Complete Object Locator'
	DD	00H
	DD	00H
	DD	imagerel ??_R0?AVexception@std@@@8
	DD	imagerel ??_R3exception@std@@8
	DD	imagerel ??_R4exception@std@@6B@
rdata$r	ENDS
;	COMDAT ??_R4?$big_any_policy@Uempty_any@anyimpl@cvflann@@@anyimpl@cvflann@@6B@
rdata$r	SEGMENT
??_R4?$big_any_policy@Uempty_any@anyimpl@cvflann@@@anyimpl@cvflann@@6B@ DD 01H ; cvflann::anyimpl::big_any_policy<cvflann::anyimpl::empty_any>::`RTTI Complete Object Locator'
	DD	00H
	DD	00H
	DD	imagerel ??_R0?AU?$big_any_policy@Uempty_any@anyimpl@cvflann@@@anyimpl@cvflann@@@8
	DD	imagerel ??_R3?$big_any_policy@Uempty_any@anyimpl@cvflann@@@anyimpl@cvflann@@8
	DD	imagerel ??_R4?$big_any_policy@Uempty_any@anyimpl@cvflann@@@anyimpl@cvflann@@6B@
rdata$r	ENDS
;	COMDAT ??_R0PEBD@8
data$r	SEGMENT
??_R0PEBD@8 DQ	FLAT:??_7type_info@@6B@			; char const * `RTTI Type Descriptor'
	DQ	0000000000000000H
	DB	'.PEBD', 00H
data$r	ENDS
;	COMDAT ??_R4?$small_any_policy@M@anyimpl@cvflann@@6B@
rdata$r	SEGMENT
??_R4?$small_any_policy@M@anyimpl@cvflann@@6B@ DD 01H	; cvflann::anyimpl::small_any_policy<float>::`RTTI Complete Object Locator'
	DD	00H
	DD	00H
	DD	imagerel ??_R0?AU?$small_any_policy@M@anyimpl@cvflann@@@8
	DD	imagerel ??_R3?$small_any_policy@M@anyimpl@cvflann@@8
	DD	imagerel ??_R4?$small_any_policy@M@anyimpl@cvflann@@6B@
rdata$r	ENDS
;	COMDAT ??_C@_0BF@KINCDENJ@bad?5array?5new?5length@
CONST	SEGMENT
??_C@_0BF@KINCDENJ@bad?5array?5new?5length@ DB 'bad array new length', 00H ; `string'
CONST	ENDS
;	COMDAT ??_C@_0BC@EOODALEL@Unknown?5exception@
CONST	SEGMENT
??_C@_0BC@EOODALEL@Unknown?5exception@ DB 'Unknown exception', 00H ; `string'
CONST	ENDS
PUBLIC	??1?$typed_base_any_policy@V?$basic_string@DU?$char_traits@D@std@@V?$allocator@D@2@@std@@@anyimpl@cvflann@@UEAA@XZ ; cvflann::anyimpl::typed_base_any_policy<std::basic_string<char,std::char_traits<char>,std::allocator<char> > >::~typed_base_any_policy<std::basic_string<char,std::char_traits<char>,std::allocator<char> > >
PUBLIC	??1?$big_any_policy@V?$basic_string@DU?$char_traits@D@std@@V?$allocator@D@2@@std@@@anyimpl@cvflann@@UEAA@XZ ; cvflann::anyimpl::big_any_policy<std::basic_string<char,std::char_traits<char>,std::allocator<char> > >::~big_any_policy<std::basic_string<char,std::char_traits<char>,std::allocator<char> > >
PUBLIC	??_G?$big_any_policy@V?$basic_string@DU?$char_traits@D@std@@V?$allocator@D@2@@std@@@anyimpl@cvflann@@UEAAPEAXI@Z ; cvflann::anyimpl::big_any_policy<std::basic_string<char,std::char_traits<char>,std::allocator<char> > >::`scalar deleting destructor'
PUBLIC	??1?$typed_base_any_policy@I@anyimpl@cvflann@@UEAA@XZ ; cvflann::anyimpl::typed_base_any_policy<unsigned int>::~typed_base_any_policy<unsigned int>
PUBLIC	??1?$small_any_policy@I@anyimpl@cvflann@@UEAA@XZ ; cvflann::anyimpl::small_any_policy<unsigned int>::~small_any_policy<unsigned int>
PUBLIC	??_G?$small_any_policy@I@anyimpl@cvflann@@UEAAPEAXI@Z ; cvflann::anyimpl::small_any_policy<unsigned int>::`scalar deleting destructor'
PUBLIC	??1?$typed_base_any_policy@W4flann_centers_init_t@cvflann@@@anyimpl@cvflann@@UEAA@XZ ; cvflann::anyimpl::typed_base_any_policy<enum cvflann::flann_centers_init_t>::~typed_base_any_policy<enum cvflann::flann_centers_init_t>
PUBLIC	??1?$big_any_policy@W4flann_centers_init_t@cvflann@@@anyimpl@cvflann@@UEAA@XZ ; cvflann::anyimpl::big_any_policy<enum cvflann::flann_centers_init_t>::~big_any_policy<enum cvflann::flann_centers_init_t>
PUBLIC	??_G?$big_any_policy@W4flann_centers_init_t@cvflann@@@anyimpl@cvflann@@UEAAPEAXI@Z ; cvflann::anyimpl::big_any_policy<enum cvflann::flann_centers_init_t>::`scalar deleting destructor'
PUBLIC	??1?$typed_base_any_policy@W4flann_algorithm_t@cvflann@@@anyimpl@cvflann@@UEAA@XZ ; cvflann::anyimpl::typed_base_any_policy<enum cvflann::flann_algorithm_t>::~typed_base_any_policy<enum cvflann::flann_algorithm_t>
PUBLIC	??1?$big_any_policy@W4flann_algorithm_t@cvflann@@@anyimpl@cvflann@@UEAA@XZ ; cvflann::anyimpl::big_any_policy<enum cvflann::flann_algorithm_t>::~big_any_policy<enum cvflann::flann_algorithm_t>
PUBLIC	??_G?$big_any_policy@W4flann_algorithm_t@cvflann@@@anyimpl@cvflann@@UEAAPEAXI@Z ; cvflann::anyimpl::big_any_policy<enum cvflann::flann_algorithm_t>::`scalar deleting destructor'
PUBLIC	??1?$typed_base_any_policy@_N@anyimpl@cvflann@@UEAA@XZ ; cvflann::anyimpl::typed_base_any_policy<bool>::~typed_base_any_policy<bool>
PUBLIC	??1?$small_any_policy@_N@anyimpl@cvflann@@UEAA@XZ ; cvflann::anyimpl::small_any_policy<bool>::~small_any_policy<bool>
PUBLIC	??_G?$small_any_policy@_N@anyimpl@cvflann@@UEAAPEAXI@Z ; cvflann::anyimpl::small_any_policy<bool>::`scalar deleting destructor'
PUBLIC	??1?$typed_base_any_policy@M@anyimpl@cvflann@@UEAA@XZ ; cvflann::anyimpl::typed_base_any_policy<float>::~typed_base_any_policy<float>
PUBLIC	??1?$small_any_policy@M@anyimpl@cvflann@@UEAA@XZ ; cvflann::anyimpl::small_any_policy<float>::~small_any_policy<float>
PUBLIC	??_G?$small_any_policy@M@anyimpl@cvflann@@UEAAPEAXI@Z ; cvflann::anyimpl::small_any_policy<float>::`scalar deleting destructor'
PUBLIC	??1?$typed_base_any_policy@H@anyimpl@cvflann@@UEAA@XZ ; cvflann::anyimpl::typed_base_any_policy<int>::~typed_base_any_policy<int>
PUBLIC	??1?$small_any_policy@H@anyimpl@cvflann@@UEAA@XZ ; cvflann::anyimpl::small_any_policy<int>::~small_any_policy<int>
PUBLIC	??_G?$small_any_policy@H@anyimpl@cvflann@@UEAAPEAXI@Z ; cvflann::anyimpl::small_any_policy<int>::`scalar deleting destructor'
PUBLIC	??$forward@AEBV?$allocator@D@std@@@std@@YAAEBV?$allocator@D@0@AEBV10@@Z ; std::forward<std::allocator<char> const &>
PUBLIC	?get_size@?$typed_base_any_policy@H@anyimpl@cvflann@@UEAA_KXZ ; cvflann::anyimpl::typed_base_any_policy<int>::get_size
PUBLIC	?type@?$typed_base_any_policy@H@anyimpl@cvflann@@UEAAAEBVtype_info@@XZ ; cvflann::anyimpl::typed_base_any_policy<int>::type
PUBLIC	?static_delete@?$small_any_policy@H@anyimpl@cvflann@@UEAAXPEAPEAX@Z ; cvflann::anyimpl::small_any_policy<int>::static_delete
PUBLIC	?copy_from_value@?$small_any_policy@H@anyimpl@cvflann@@UEAAXPEBXPEAPEAX@Z ; cvflann::anyimpl::small_any_policy<int>::copy_from_value
PUBLIC	?clone@?$small_any_policy@H@anyimpl@cvflann@@UEAAXPEBQEAXPEAPEAX@Z ; cvflann::anyimpl::small_any_policy<int>::clone
PUBLIC	?move@?$small_any_policy@H@anyimpl@cvflann@@UEAAXPEBQEAXPEAPEAX@Z ; cvflann::anyimpl::small_any_policy<int>::move
PUBLIC	?get_value@?$small_any_policy@H@anyimpl@cvflann@@UEAAPEAXPEAPEAX@Z ; cvflann::anyimpl::small_any_policy<int>::get_value
PUBLIC	?get_value@?$small_any_policy@H@anyimpl@cvflann@@UEAAPEBXPEBQEAX@Z ; cvflann::anyimpl::small_any_policy<int>::get_value
PUBLIC	?print@?$small_any_policy@H@anyimpl@cvflann@@UEAAXAEAV?$basic_ostream@DU?$char_traits@D@std@@@std@@PEBQEAX@Z ; cvflann::anyimpl::small_any_policy<int>::print
PUBLIC	?get_size@?$typed_base_any_policy@M@anyimpl@cvflann@@UEAA_KXZ ; cvflann::anyimpl::typed_base_any_policy<float>::get_size
PUBLIC	?type@?$typed_base_any_policy@M@anyimpl@cvflann@@UEAAAEBVtype_info@@XZ ; cvflann::anyimpl::typed_base_any_policy<float>::type
PUBLIC	?static_delete@?$small_any_policy@M@anyimpl@cvflann@@UEAAXPEAPEAX@Z ; cvflann::anyimpl::small_any_policy<float>::static_delete
PUBLIC	?copy_from_value@?$small_any_policy@M@anyimpl@cvflann@@UEAAXPEBXPEAPEAX@Z ; cvflann::anyimpl::small_any_policy<float>::copy_from_value
PUBLIC	?clone@?$small_any_policy@M@anyimpl@cvflann@@UEAAXPEBQEAXPEAPEAX@Z ; cvflann::anyimpl::small_any_policy<float>::clone
PUBLIC	?move@?$small_any_policy@M@anyimpl@cvflann@@UEAAXPEBQEAXPEAPEAX@Z ; cvflann::anyimpl::small_any_policy<float>::move
PUBLIC	?get_value@?$small_any_policy@M@anyimpl@cvflann@@UEAAPEAXPEAPEAX@Z ; cvflann::anyimpl::small_any_policy<float>::get_value
PUBLIC	?get_value@?$small_any_policy@M@anyimpl@cvflann@@UEAAPEBXPEBQEAX@Z ; cvflann::anyimpl::small_any_policy<float>::get_value
PUBLIC	?print@?$small_any_policy@M@anyimpl@cvflann@@UEAAXAEAV?$basic_ostream@DU?$char_traits@D@std@@@std@@PEBQEAX@Z ; cvflann::anyimpl::small_any_policy<float>::print
PUBLIC	?get_size@?$typed_base_any_policy@_N@anyimpl@cvflann@@UEAA_KXZ ; cvflann::anyimpl::typed_base_any_policy<bool>::get_size
PUBLIC	?type@?$typed_base_any_policy@_N@anyimpl@cvflann@@UEAAAEBVtype_info@@XZ ; cvflann::anyimpl::typed_base_any_policy<bool>::type
PUBLIC	?static_delete@?$small_any_policy@_N@anyimpl@cvflann@@UEAAXPEAPEAX@Z ; cvflann::anyimpl::small_any_policy<bool>::static_delete
PUBLIC	?copy_from_value@?$small_any_policy@_N@anyimpl@cvflann@@UEAAXPEBXPEAPEAX@Z ; cvflann::anyimpl::small_any_policy<bool>::copy_from_value
PUBLIC	?clone@?$small_any_policy@_N@anyimpl@cvflann@@UEAAXPEBQEAXPEAPEAX@Z ; cvflann::anyimpl::small_any_policy<bool>::clone
PUBLIC	?move@?$small_any_policy@_N@anyimpl@cvflann@@UEAAXPEBQEAXPEAPEAX@Z ; cvflann::anyimpl::small_any_policy<bool>::move
PUBLIC	?get_value@?$small_any_policy@_N@anyimpl@cvflann@@UEAAPEAXPEAPEAX@Z ; cvflann::anyimpl::small_any_policy<bool>::get_value
PUBLIC	?get_value@?$small_any_policy@_N@anyimpl@cvflann@@UEAAPEBXPEBQEAX@Z ; cvflann::anyimpl::small_any_policy<bool>::get_value
PUBLIC	?print@?$small_any_policy@_N@anyimpl@cvflann@@UEAAXAEAV?$basic_ostream@DU?$char_traits@D@std@@@std@@PEBQEAX@Z ; cvflann::anyimpl::small_any_policy<bool>::print
PUBLIC	?get_size@?$typed_base_any_policy@I@anyimpl@cvflann@@UEAA_KXZ ; cvflann::anyimpl::typed_base_any_policy<unsigned int>::get_size
PUBLIC	?type@?$typed_base_any_policy@I@anyimpl@cvflann@@UEAAAEBVtype_info@@XZ ; cvflann::anyimpl::typed_base_any_policy<unsigned int>::type
PUBLIC	?static_delete@?$small_any_policy@I@anyimpl@cvflann@@UEAAXPEAPEAX@Z ; cvflann::anyimpl::small_any_policy<unsigned int>::static_delete
PUBLIC	?copy_from_value@?$small_any_policy@I@anyimpl@cvflann@@UEAAXPEBXPEAPEAX@Z ; cvflann::anyimpl::small_any_policy<unsigned int>::copy_from_value
PUBLIC	?clone@?$small_any_policy@I@anyimpl@cvflann@@UEAAXPEBQEAXPEAPEAX@Z ; cvflann::anyimpl::small_any_policy<unsigned int>::clone
PUBLIC	?move@?$small_any_policy@I@anyimpl@cvflann@@UEAAXPEBQEAXPEAPEAX@Z ; cvflann::anyimpl::small_any_policy<unsigned int>::move
PUBLIC	?get_value@?$small_any_policy@I@anyimpl@cvflann@@UEAAPEAXPEAPEAX@Z ; cvflann::anyimpl::small_any_policy<unsigned int>::get_value
PUBLIC	?get_value@?$small_any_policy@I@anyimpl@cvflann@@UEAAPEBXPEBQEAX@Z ; cvflann::anyimpl::small_any_policy<unsigned int>::get_value
PUBLIC	?print@?$small_any_policy@I@anyimpl@cvflann@@UEAAXAEAV?$basic_ostream@DU?$char_traits@D@std@@@std@@PEBQEAX@Z ; cvflann::anyimpl::small_any_policy<unsigned int>::print
PUBLIC	??1?$typed_base_any_policy@PEBD@anyimpl@cvflann@@UEAA@XZ ; cvflann::anyimpl::typed_base_any_policy<char const *>::~typed_base_any_policy<char const *>
PUBLIC	??1?$small_any_policy@PEBD@anyimpl@cvflann@@UEAA@XZ ; cvflann::anyimpl::small_any_policy<char const *>::~small_any_policy<char const *>
PUBLIC	??_G?$small_any_policy@PEBD@anyimpl@cvflann@@UEAAPEAXI@Z ; cvflann::anyimpl::small_any_policy<char const *>::`scalar deleting destructor'
PUBLIC	??$?0AEBV?$allocator@D@std@@$$V@?$_Compressed_pair@V?$allocator@D@std@@V?$_String_val@U?$_Simple_types@D@std@@@2@$00@std@@QEAA@U_One_then_variadic_args_t@1@AEBV?$allocator@D@1@@Z ; std::_Compressed_pair<std::allocator<char>,std::_String_val<std::_Simple_types<char> >,1>::_Compressed_pair<std::allocator<char>,std::_String_val<std::_Simple_types<char> >,1><std::allocator<char> const &>
PUBLIC	??0?$Matx@N$03$00@cv@@QEAA@XZ			; cv::Matx<double,4,1>::Matx<double,4,1>
PUBLIC	?_Construct@?$basic_string@DU?$char_traits@D@std@@V?$allocator@D@2@@std@@QEAAXQEAD0Urandom_access_iterator_tag@2@@Z ; std::basic_string<char,std::char_traits<char>,std::allocator<char> >::_Construct
PUBLIC	?get_size@?$typed_base_any_policy@PEBD@anyimpl@cvflann@@UEAA_KXZ ; cvflann::anyimpl::typed_base_any_policy<char const *>::get_size
PUBLIC	?type@?$typed_base_any_policy@PEBD@anyimpl@cvflann@@UEAAAEBVtype_info@@XZ ; cvflann::anyimpl::typed_base_any_policy<char const *>::type
PUBLIC	?static_delete@?$small_any_policy@PEBD@anyimpl@cvflann@@UEAAXPEAPEAX@Z ; cvflann::anyimpl::small_any_policy<char const *>::static_delete
PUBLIC	?copy_from_value@?$small_any_policy@PEBD@anyimpl@cvflann@@UEAAXPEBXPEAPEAX@Z ; cvflann::anyimpl::small_any_policy<char const *>::copy_from_value
PUBLIC	?clone@?$small_any_policy@PEBD@anyimpl@cvflann@@UEAAXPEBQEAXPEAPEAX@Z ; cvflann::anyimpl::small_any_policy<char const *>::clone
PUBLIC	?move@?$small_any_policy@PEBD@anyimpl@cvflann@@UEAAXPEBQEAXPEAPEAX@Z ; cvflann::anyimpl::small_any_policy<char const *>::move
PUBLIC	?get_value@?$small_any_policy@PEBD@anyimpl@cvflann@@UEAAPEAXPEAPEAX@Z ; cvflann::anyimpl::small_any_policy<char const *>::get_value
PUBLIC	?get_value@?$small_any_policy@PEBD@anyimpl@cvflann@@UEAAPEBXPEBQEAX@Z ; cvflann::anyimpl::small_any_policy<char const *>::get_value
PUBLIC	?print@?$small_any_policy@PEBD@anyimpl@cvflann@@UEAAXAEAV?$basic_ostream@DU?$char_traits@D@std@@@std@@PEBQEAX@Z ; cvflann::anyimpl::small_any_policy<char const *>::print
PUBLIC	??1?$typed_base_any_policy@Uempty_any@anyimpl@cvflann@@@anyimpl@cvflann@@UEAA@XZ ; cvflann::anyimpl::typed_base_any_policy<cvflann::anyimpl::empty_any>::~typed_base_any_policy<cvflann::anyimpl::empty_any>
PUBLIC	??1?$big_any_policy@Uempty_any@anyimpl@cvflann@@@anyimpl@cvflann@@UEAA@XZ ; cvflann::anyimpl::big_any_policy<cvflann::anyimpl::empty_any>::~big_any_policy<cvflann::anyimpl::empty_any>
PUBLIC	??_G?$big_any_policy@Uempty_any@anyimpl@cvflann@@@anyimpl@cvflann@@UEAAPEAXI@Z ; cvflann::anyimpl::big_any_policy<cvflann::anyimpl::empty_any>::`scalar deleting destructor'
PUBLIC	??$_Reallocate_grow_by@V<lambda_f3a66ab6a0570788f31503db83886f49>@@_KPEBD_K@?$basic_string@DU?$char_traits@D@std@@V?$allocator@D@2@@std@@AEAAAEAV01@_KV<lambda_f3a66ab6a0570788f31503db83886f49>@@_KPEBD2@Z ; std::basic_string<char,std::char_traits<char>,std::allocator<char> >::_Reallocate_grow_by<<lambda_f3a66ab6a0570788f31503db83886f49>,unsigned __int64,char const *,unsigned __int64>
PUBLIC	??$_Allocate_manually_vector_aligned@U_Default_allocate_traits@std@@@std@@YAPEAX_K@Z ; std::_Allocate_manually_vector_aligned<std::_Default_allocate_traits>
PUBLIC	??$forward@AEBQEAD@std@@YAAEBQEADAEBQEAD@Z	; std::forward<char * const &>
PUBLIC	??$addressof@PEAD@std@@YAPEAPEADAEAPEAD@Z	; std::addressof<char *>
PUBLIC	??$forward@V?$allocator@D@std@@@std@@YA$$QEAV?$allocator@D@0@AEAV10@@Z ; std::forward<std::allocator<char> >
PUBLIC	??$?0PEAD$0A@@?$basic_string@DU?$char_traits@D@std@@V?$allocator@D@2@@std@@QEAA@PEAD0AEBV?$allocator@D@1@@Z ; std::basic_string<char,std::char_traits<char>,std::allocator<char> >::basic_string<char,std::char_traits<char>,std::allocator<char> ><char *,0>
PUBLIC	??$_UIntegral_to_buff@DI@std@@YAPEADPEADI@Z	; std::_UIntegral_to_buff<char,unsigned int>
PUBLIC	??0?$Vec@N$03@cv@@QEAA@XZ			; cv::Vec<double,4>::Vec<double,4>
PUBLIC	??0_Bxty@?$_String_val@U?$_Simple_types@D@std@@@std@@QEAA@XZ ; std::_String_val<std::_Simple_types<char> >::_Bxty::_Bxty
PUBLIC	??R<lambda_f3a66ab6a0570788f31503db83886f49>@@QEBAXQEADQEBD_K212@Z ; <lambda_f3a66ab6a0570788f31503db83886f49>::operator()
PUBLIC	?insert@?$basic_string@DU?$char_traits@D@std@@V?$allocator@D@2@@std@@QEAAAEAV12@_KQEBD0@Z ; std::basic_string<char,std::char_traits<char>,std::allocator<char> >::insert
PUBLIC	?_Calculate_growth@?$basic_string@DU?$char_traits@D@std@@V?$allocator@D@2@@std@@CA_K_K00@Z ; std::basic_string<char,std::char_traits<char>,std::allocator<char> >::_Calculate_growth
PUBLIC	??0?$allocator@D@std@@QEAA@XZ			; std::allocator<char>::allocator<char>
PUBLIC	??0?$_String_val@U?$_Simple_types@D@std@@@std@@QEAA@XZ ; std::_String_val<std::_Simple_types<char> >::_String_val<std::_Simple_types<char> >
PUBLIC	?insert@?$basic_string@DU?$char_traits@D@std@@V?$allocator@D@2@@std@@QEAAAEAV12@_KAEBV12@@Z ; std::basic_string<char,std::char_traits<char>,std::allocator<char> >::insert
PUBLIC	?capacity@?$basic_string@DU?$char_traits@D@std@@V?$allocator@D@2@@std@@QEBA_KXZ ; std::basic_string<char,std::char_traits<char>,std::allocator<char> >::capacity
PUBLIC	?_Calculate_growth@?$basic_string@DU?$char_traits@D@std@@V?$allocator@D@2@@std@@AEBA_K_K@Z ; std::basic_string<char,std::char_traits<char>,std::allocator<char> >::_Calculate_growth
PUBLIC	?_Xlen@?$basic_string@DU?$char_traits@D@std@@V?$allocator@D@2@@std@@CAXXZ ; std::basic_string<char,std::char_traits<char>,std::allocator<char> >::_Xlen
PUBLIC	?get_size@?$typed_base_any_policy@Uempty_any@anyimpl@cvflann@@@anyimpl@cvflann@@UEAA_KXZ ; cvflann::anyimpl::typed_base_any_policy<cvflann::anyimpl::empty_any>::get_size
PUBLIC	?type@?$typed_base_any_policy@Uempty_any@anyimpl@cvflann@@@anyimpl@cvflann@@UEAAAEBVtype_info@@XZ ; cvflann::anyimpl::typed_base_any_policy<cvflann::anyimpl::empty_any>::type
PUBLIC	?static_delete@?$big_any_policy@Uempty_any@anyimpl@cvflann@@@anyimpl@cvflann@@UEAAXPEAPEAX@Z ; cvflann::anyimpl::big_any_policy<cvflann::anyimpl::empty_any>::static_delete
PUBLIC	?copy_from_value@?$big_any_policy@Uempty_any@anyimpl@cvflann@@@anyimpl@cvflann@@UEAAXPEBXPEAPEAX@Z ; cvflann::anyimpl::big_any_policy<cvflann::anyimpl::empty_any>::copy_from_value
PUBLIC	?clone@?$big_any_policy@Uempty_any@anyimpl@cvflann@@@anyimpl@cvflann@@UEAAXPEBQEAXPEAPEAX@Z ; cvflann::anyimpl::big_any_policy<cvflann::anyimpl::empty_any>::clone
PUBLIC	?move@?$big_any_policy@Uempty_any@anyimpl@cvflann@@@anyimpl@cvflann@@UEAAXPEBQEAXPEAPEAX@Z ; cvflann::anyimpl::big_any_policy<cvflann::anyimpl::empty_any>::move
PUBLIC	?get_value@?$big_any_policy@Uempty_any@anyimpl@cvflann@@@anyimpl@cvflann@@UEAAPEAXPEAPEAX@Z ; cvflann::anyimpl::big_any_policy<cvflann::anyimpl::empty_any>::get_value
PUBLIC	?get_value@?$big_any_policy@Uempty_any@anyimpl@cvflann@@@anyimpl@cvflann@@UEAAPEBXPEBQEAX@Z ; cvflann::anyimpl::big_any_policy<cvflann::anyimpl::empty_any>::get_value
PUBLIC	?print@?$big_any_policy@Uempty_any@anyimpl@cvflann@@@anyimpl@cvflann@@UEAAXAEAV?$basic_ostream@DU?$char_traits@D@std@@@std@@PEBQEAX@Z ; cvflann::anyimpl::big_any_policy<cvflann::anyimpl::empty_any>::print
PUBLIC	??$addressof@$$CBV?$_String_val@U?$_Simple_types@D@std@@@std@@@std@@YAPEBV?$_String_val@U?$_Simple_types@D@std@@@0@AEBV10@@Z ; std::addressof<std::_String_val<std::_Simple_types<char> > const >
PUBLIC	??$_Deallocate@$0BA@$0A@@std@@YAXPEAX_K@Z	; std::_Deallocate<16,0>
PUBLIC	??$_Allocate@$0BA@U_Default_allocate_traits@std@@$0A@@std@@YAPEAX_K@Z ; std::_Allocate<16,std::_Default_allocate_traits,0>
PUBLIC	??$_Get_size_of_n@$00@std@@YA_K_K@Z		; std::_Get_size_of_n<1>
PUBLIC	??$_Construct_in_place@PEADAEBQEAD@std@@YAXAEAPEADAEBQEAD@Z ; std::_Construct_in_place<char *,char * const &>
PUBLIC	??$_Pocca@V?$allocator@D@std@@@std@@YAXAEAV?$allocator@D@0@AEBV10@@Z ; std::_Pocca<std::allocator<char> >
PUBLIC	??$_Reallocate_grow_by@V<lambda_65e615be2a453ca0576c979606f46740>@@PEBD_K@?$basic_string@DU?$char_traits@D@std@@V?$allocator@D@2@@std@@AEAAAEAV01@_KV<lambda_65e615be2a453ca0576c979606f46740>@@PEBD_K@Z ; std::basic_string<char,std::char_traits<char>,std::allocator<char> >::_Reallocate_grow_by<<lambda_65e615be2a453ca0576c979606f46740>,char const *,unsigned __int64>
PUBLIC	??$_Reallocate_for@V<lambda_66f57f934f28d61049862f64df852ff0>@@PEBD@?$basic_string@DU?$char_traits@D@std@@V?$allocator@D@2@@std@@AEAAAEAV01@_KV<lambda_66f57f934f28d61049862f64df852ff0>@@PEBD@Z ; std::basic_string<char,std::char_traits<char>,std::allocator<char> >::_Reallocate_for<<lambda_66f57f934f28d61049862f64df852ff0>,char const *>
PUBLIC	??$_Destroy_in_place@PEAD@std@@YAXAEAPEAD@Z	; std::_Destroy_in_place<char *>
PUBLIC	??$?0$$V@?$_Compressed_pair@V?$allocator@D@std@@V?$_String_val@U?$_Simple_types@D@std@@@2@$00@std@@QEAA@U_Zero_then_variadic_args_t@1@@Z ; std::_Compressed_pair<std::allocator<char>,std::_String_val<std::_Simple_types<char> >,1>::_Compressed_pair<std::allocator<char>,std::_String_val<std::_Simple_types<char> >,1><>
PUBLIC	??$?0V?$allocator@D@std@@$$V@?$_Compressed_pair@V?$allocator@D@std@@V?$_String_val@U?$_Simple_types@D@std@@@2@$00@std@@QEAA@U_One_then_variadic_args_t@1@$$QEAV?$allocator@D@1@@Z ; std::_Compressed_pair<std::allocator<char>,std::_String_val<std::_Simple_types<char> >,1>::_Compressed_pair<std::allocator<char>,std::_String_val<std::_Simple_types<char> >,1><std::allocator<char> >
PUBLIC	??$move@AEAV?$allocator@D@std@@@std@@YA$$QEAV?$allocator@D@0@AEAV10@@Z ; std::move<std::allocator<char> &>
PUBLIC	??$addressof@$$CBV?$basic_string@DU?$char_traits@D@std@@V?$allocator@D@2@@std@@@std@@YAPEBV?$basic_string@DU?$char_traits@D@std@@V?$allocator@D@2@@0@AEBV10@@Z ; std::addressof<std::basic_string<char,std::char_traits<char>,std::allocator<char> > const >
PUBLIC	??$addressof@V?$_String_val@U?$_Simple_types@D@std@@@std@@@std@@YAPEAV?$_String_val@U?$_Simple_types@D@std@@@0@AEAV10@@Z ; std::addressof<std::_String_val<std::_Simple_types<char> > >
PUBLIC	??$move@AEAV?$basic_string@DU?$char_traits@D@std@@V?$allocator@D@2@@std@@@std@@YA$$QEAV?$basic_string@DU?$char_traits@D@std@@V?$allocator@D@2@@0@AEAV10@@Z ; std::move<std::basic_string<char,std::char_traits<char>,std::allocator<char> > &>
PUBLIC	??$_Get_unwrapped@AEAPEAD@std@@YAPEADAEAPEAD@Z	; std::_Get_unwrapped<char * &>
PUBLIC	??$_Unfancy@D@std@@YAPEADPEAD@Z			; std::_Unfancy<char>
PUBLIC	??$?HDU?$char_traits@D@std@@V?$allocator@D@1@@std@@YA?AV?$basic_string@DU?$char_traits@D@std@@V?$allocator@D@2@@0@$$QEAV10@0@Z ; std::operator+<char,std::char_traits<char>,std::allocator<char> >
PUBLIC	??$?HDU?$char_traits@D@std@@V?$allocator@D@1@@std@@YA?AV?$basic_string@DU?$char_traits@D@std@@V?$allocator@D@2@@0@$$QEAV10@QEBD@Z ; std::operator+<char,std::char_traits<char>,std::allocator<char> >
PUBLIC	??$?6U?$char_traits@D@std@@@std@@YAAEAV?$basic_ostream@DU?$char_traits@D@std@@@0@AEAV10@PEBD@Z ; std::operator<<<std::char_traits<char> >
PUBLIC	??0?$Scalar_@N@cv@@QEAA@NNNN@Z			; cv::Scalar_<double>::Scalar_<double>
PUBLIC	??0?$Point_@H@cv@@QEAA@HH@Z			; cv::Point_<int>::Point_<int>
PUBLIC	??0?$Size_@H@cv@@QEAA@XZ			; cv::Size_<int>::Size_<int>
PUBLIC	??$end@D$0BF@@std@@YAPEADAEAY0BF@D@Z		; std::end<char,21>
PUBLIC	??$_Integral_to_string@DH@std@@YA?AV?$basic_string@DU?$char_traits@D@std@@V?$allocator@D@2@@0@H@Z ; std::_Integral_to_string<char,int>
PUBLIC	??$_Adl_verify_range@PEADPEAD@std@@YAXAEBQEAD0@Z ; std::_Adl_verify_range<char *,char *>
PUBLIC	??$_Min_value@_K@std@@YAAEB_KAEB_K0@Z		; std::_Min_value<unsigned __int64>
PUBLIC	?_Xran@?$_String_val@U?$_Simple_types@D@std@@@std@@SAXXZ ; std::_String_val<std::_Simple_types<char> >::_Xran
PUBLIC	?_Check_offset@?$_String_val@U?$_Simple_types@D@std@@@std@@QEBAX_K@Z ; std::_String_val<std::_Simple_types<char> >::_Check_offset
PUBLIC	?move@?$_Narrow_char_traits@DH@std@@SAPEADQEADQEBD_K@Z ; std::_Narrow_char_traits<char,int>::move
PUBLIC	?assign@?$_Narrow_char_traits@DH@std@@SAXAEADAEBD@Z ; std::_Narrow_char_traits<char,int>::assign
PUBLIC	?max_size@?$_Default_allocator_traits@V?$allocator@D@std@@@std@@SA_KAEBV?$allocator@D@2@@Z ; std::_Default_allocator_traits<std::allocator<char> >::max_size
PUBLIC	?_Memcpy_val_from@?$basic_string@DU?$char_traits@D@std@@V?$allocator@D@2@@std@@AEAAXAEBV12@@Z ; std::basic_string<char,std::char_traits<char>,std::allocator<char> >::_Memcpy_val_from
PUBLIC	?_Get_first@?$_Compressed_pair@V?$allocator@D@std@@V?$_String_val@U?$_Simple_types@D@std@@@2@$00@std@@QEAAAEAV?$allocator@D@2@XZ ; std::_Compressed_pair<std::allocator<char>,std::_String_val<std::_Simple_types<char> >,1>::_Get_first
PUBLIC	?_Get_first@?$_Compressed_pair@V?$allocator@D@std@@V?$_String_val@U?$_Simple_types@D@std@@@2@$00@std@@QEBAAEBV?$allocator@D@2@XZ ; std::_Compressed_pair<std::allocator<char>,std::_String_val<std::_Simple_types<char> >,1>::_Get_first
PUBLIC	??0_Sentry_base@?$basic_ostream@DU?$char_traits@D@std@@@std@@QEAA@AEAV12@@Z ; std::basic_ostream<char,std::char_traits<char> >::_Sentry_base::_Sentry_base
PUBLIC	??1_Sentry_base@?$basic_ostream@DU?$char_traits@D@std@@@std@@QEAA@XZ ; std::basic_ostream<char,std::char_traits<char> >::_Sentry_base::~_Sentry_base
PUBLIC	?length@?$_Narrow_char_traits@DH@std@@SA_KQEBD@Z ; std::_Narrow_char_traits<char,int>::length
PUBLIC	?copy@?$_Narrow_char_traits@DH@std@@SAPEADQEADQEBD_K@Z ; std::_Narrow_char_traits<char,int>::copy
PUBLIC	?eq_int_type@?$_Narrow_char_traits@DH@std@@SA_NAEBH0@Z ; std::_Narrow_char_traits<char,int>::eq_int_type
PUBLIC	?eof@?$_Narrow_char_traits@DH@std@@SAHXZ	; std::_Narrow_char_traits<char,int>::eof
PUBLIC	?deallocate@?$allocator@D@std@@QEAAXQEAD_K@Z	; std::allocator<char>::deallocate
PUBLIC	?allocate@?$allocator@D@std@@QEAAPEAD_K@Z	; std::allocator<char>::allocate
PUBLIC	?select_on_container_copy_construction@?$_Default_allocator_traits@V?$allocator@D@std@@@std@@SA?AV?$allocator@D@2@AEBV32@@Z ; std::_Default_allocator_traits<std::allocator<char> >::select_on_container_copy_construction
PUBLIC	?_Myptr@?$_String_val@U?$_Simple_types@D@std@@@std@@QEAAPEADXZ ; std::_String_val<std::_Simple_types<char> >::_Myptr
PUBLIC	?_Myptr@?$_String_val@U?$_Simple_types@D@std@@@std@@QEBAPEBDXZ ; std::_String_val<std::_Simple_types<char> >::_Myptr
PUBLIC	?_Large_string_engaged@?$_String_val@U?$_Simple_types@D@std@@@std@@QEBA_NXZ ; std::_String_val<std::_Simple_types<char> >::_Large_string_engaged
PUBLIC	??1_Bxty@?$_String_val@U?$_Simple_types@D@std@@@std@@QEAA@XZ ; std::_String_val<std::_Simple_types<char> >::_Bxty::~_Bxty
PUBLIC	?_Take_contents@?$basic_string@DU?$char_traits@D@std@@V?$allocator@D@2@@std@@AEAAXAEAV12@U?$integral_constant@_N$00@2@@Z ; std::basic_string<char,std::char_traits<char>,std::allocator<char> >::_Take_contents
PUBLIC	?_Construct_lv_contents@?$basic_string@DU?$char_traits@D@std@@V?$allocator@D@2@@std@@AEAAXAEBV12@@Z ; std::basic_string<char,std::char_traits<char>,std::allocator<char> >::_Construct_lv_contents
PUBLIC	?_Copy_assign@?$basic_string@DU?$char_traits@D@std@@V?$allocator@D@2@@std@@AEAAXAEBV12@U?$integral_constant@_N$0A@@2@@Z ; std::basic_string<char,std::char_traits<char>,std::allocator<char> >::_Copy_assign
PUBLIC	??R<lambda_65e615be2a453ca0576c979606f46740>@@QEBAXQEADQEBD_K12@Z ; <lambda_65e615be2a453ca0576c979606f46740>::operator()
PUBLIC	?append@?$basic_string@DU?$char_traits@D@std@@V?$allocator@D@2@@std@@QEAAAEAV12@QEBD_K@Z ; std::basic_string<char,std::char_traits<char>,std::allocator<char> >::append
PUBLIC	??R<lambda_66f57f934f28d61049862f64df852ff0>@@QEBAXQEAD_KQEBD@Z ; <lambda_66f57f934f28d61049862f64df852ff0>::operator()
PUBLIC	?assign@?$basic_string@DU?$char_traits@D@std@@V?$allocator@D@2@@std@@QEAAAEAV12@QEBD_K@Z ; std::basic_string<char,std::char_traits<char>,std::allocator<char> >::assign
PUBLIC	?assign@?$basic_string@DU?$char_traits@D@std@@V?$allocator@D@2@@std@@QEAAAEAV12@QEBD@Z ; std::basic_string<char,std::char_traits<char>,std::allocator<char> >::assign
PUBLIC	?size@?$basic_string@DU?$char_traits@D@std@@V?$allocator@D@2@@std@@QEBA_KXZ ; std::basic_string<char,std::char_traits<char>,std::allocator<char> >::size
PUBLIC	??$_Max_value@_K@std@@YAAEB_KAEB_K0@Z		; std::_Max_value<unsigned __int64>
PUBLIC	?max_size@?$basic_string@DU?$char_traits@D@std@@V?$allocator@D@2@@std@@QEBA_KXZ ; std::basic_string<char,std::char_traits<char>,std::allocator<char> >::max_size
PUBLIC	?_Tidy_init@?$basic_string@DU?$char_traits@D@std@@V?$allocator@D@2@@std@@AEAAXXZ ; std::basic_string<char,std::char_traits<char>,std::allocator<char> >::_Tidy_init
PUBLIC	?_Tidy_deallocate@?$basic_string@DU?$char_traits@D@std@@V?$allocator@D@2@@std@@AEAAXXZ ; std::basic_string<char,std::char_traits<char>,std::allocator<char> >::_Tidy_deallocate
PUBLIC	?_Getal@?$basic_string@DU?$char_traits@D@std@@V?$allocator@D@2@@std@@AEAAAEAV?$allocator@D@2@XZ ; std::basic_string<char,std::char_traits<char>,std::allocator<char> >::_Getal
PUBLIC	?_Getal@?$basic_string@DU?$char_traits@D@std@@V?$allocator@D@2@@std@@AEBAAEBV?$allocator@D@2@XZ ; std::basic_string<char,std::char_traits<char>,std::allocator<char> >::_Getal
PUBLIC	??0sentry@?$basic_ostream@DU?$char_traits@D@std@@@std@@QEAA@AEAV12@@Z ; std::basic_ostream<char,std::char_traits<char> >::sentry::sentry
PUBLIC	??1sentry@?$basic_ostream@DU?$char_traits@D@std@@@std@@QEAA@XZ ; std::basic_ostream<char,std::char_traits<char> >::sentry::~sentry
PUBLIC	??Bsentry@?$basic_ostream@DU?$char_traits@D@std@@@std@@QEBA_NXZ ; std::basic_ostream<char,std::char_traits<char> >::sentry::operator bool
PUBLIC	??1?$_String_val@U?$_Simple_types@D@std@@@std@@QEAA@XZ ; std::_String_val<std::_Simple_types<char> >::~_String_val<std::_Simple_types<char> >
PUBLIC	??1?$_Compressed_pair@V?$allocator@D@std@@V?$_String_val@U?$_Simple_types@D@std@@@2@$00@std@@QEAA@XZ ; std::_Compressed_pair<std::allocator<char>,std::_String_val<std::_Simple_types<char> >,1>::~_Compressed_pair<std::allocator<char>,std::_String_val<std::_Simple_types<char> >,1>
PUBLIC	??_G?$basic_string@DU?$char_traits@D@std@@V?$allocator@D@2@@std@@QEAAPEAXI@Z ; std::basic_string<char,std::char_traits<char>,std::allocator<char> >::`scalar deleting destructor'
PUBLIC	??0?$basic_string@DU?$char_traits@D@std@@V?$allocator@D@2@@std@@QEAA@AEBV01@@Z ; std::basic_string<char,std::char_traits<char>,std::allocator<char> >::basic_string<char,std::char_traits<char>,std::allocator<char> >
PUBLIC	??0?$basic_string@DU?$char_traits@D@std@@V?$allocator@D@2@@std@@QEAA@XZ ; std::basic_string<char,std::char_traits<char>,std::allocator<char> >::basic_string<char,std::char_traits<char>,std::allocator<char> >
PUBLIC	??0?$basic_string@DU?$char_traits@D@std@@V?$allocator@D@2@@std@@QEAA@QEBD@Z ; std::basic_string<char,std::char_traits<char>,std::allocator<char> >::basic_string<char,std::char_traits<char>,std::allocator<char> >
PUBLIC	??0?$basic_string@DU?$char_traits@D@std@@V?$allocator@D@2@@std@@QEAA@$$QEAV01@@Z ; std::basic_string<char,std::char_traits<char>,std::allocator<char> >::basic_string<char,std::char_traits<char>,std::allocator<char> >
PUBLIC	??1?$basic_string@DU?$char_traits@D@std@@V?$allocator@D@2@@std@@QEAA@XZ ; std::basic_string<char,std::char_traits<char>,std::allocator<char> >::~basic_string<char,std::char_traits<char>,std::allocator<char> >
PUBLIC	??4?$basic_string@DU?$char_traits@D@std@@V?$allocator@D@2@@std@@QEAAAEAV01@AEBV01@@Z ; std::basic_string<char,std::char_traits<char>,std::allocator<char> >::operator=
PUBLIC	?append@?$basic_string@DU?$char_traits@D@std@@V?$allocator@D@2@@std@@QEAAAEAV12@AEBV12@@Z ; std::basic_string<char,std::char_traits<char>,std::allocator<char> >::append
PUBLIC	?append@?$basic_string@DU?$char_traits@D@std@@V?$allocator@D@2@@std@@QEAAAEAV12@QEBD@Z ; std::basic_string<char,std::char_traits<char>,std::allocator<char> >::append
PUBLIC	?c_str@?$basic_string@DU?$char_traits@D@std@@V?$allocator@D@2@@std@@QEBAPEBDXZ ; std::basic_string<char,std::char_traits<char>,std::allocator<char> >::c_str
PUBLIC	?get_size@?$typed_base_any_policy@W4flann_centers_init_t@cvflann@@@anyimpl@cvflann@@UEAA_KXZ ; cvflann::anyimpl::typed_base_any_policy<enum cvflann::flann_centers_init_t>::get_size
PUBLIC	?type@?$typed_base_any_policy@W4flann_centers_init_t@cvflann@@@anyimpl@cvflann@@UEAAAEBVtype_info@@XZ ; cvflann::anyimpl::typed_base_any_policy<enum cvflann::flann_centers_init_t>::type
PUBLIC	?static_delete@?$big_any_policy@W4flann_centers_init_t@cvflann@@@anyimpl@cvflann@@UEAAXPEAPEAX@Z ; cvflann::anyimpl::big_any_policy<enum cvflann::flann_centers_init_t>::static_delete
PUBLIC	?copy_from_value@?$big_any_policy@W4flann_centers_init_t@cvflann@@@anyimpl@cvflann@@UEAAXPEBXPEAPEAX@Z ; cvflann::anyimpl::big_any_policy<enum cvflann::flann_centers_init_t>::copy_from_value
PUBLIC	?clone@?$big_any_policy@W4flann_centers_init_t@cvflann@@@anyimpl@cvflann@@UEAAXPEBQEAXPEAPEAX@Z ; cvflann::anyimpl::big_any_policy<enum cvflann::flann_centers_init_t>::clone
PUBLIC	?move@?$big_any_policy@W4flann_centers_init_t@cvflann@@@anyimpl@cvflann@@UEAAXPEBQEAXPEAPEAX@Z ; cvflann::anyimpl::big_any_policy<enum cvflann::flann_centers_init_t>::move
PUBLIC	?get_value@?$big_any_policy@W4flann_centers_init_t@cvflann@@@anyimpl@cvflann@@UEAAPEAXPEAPEAX@Z ; cvflann::anyimpl::big_any_policy<enum cvflann::flann_centers_init_t>::get_value
PUBLIC	?get_value@?$big_any_policy@W4flann_centers_init_t@cvflann@@@anyimpl@cvflann@@UEAAPEBXPEBQEAX@Z ; cvflann::anyimpl::big_any_policy<enum cvflann::flann_centers_init_t>::get_value
PUBLIC	?get_size@?$typed_base_any_policy@W4flann_algorithm_t@cvflann@@@anyimpl@cvflann@@UEAA_KXZ ; cvflann::anyimpl::typed_base_any_policy<enum cvflann::flann_algorithm_t>::get_size
PUBLIC	?type@?$typed_base_any_policy@W4flann_algorithm_t@cvflann@@@anyimpl@cvflann@@UEAAAEBVtype_info@@XZ ; cvflann::anyimpl::typed_base_any_policy<enum cvflann::flann_algorithm_t>::type
PUBLIC	?static_delete@?$big_any_policy@W4flann_algorithm_t@cvflann@@@anyimpl@cvflann@@UEAAXPEAPEAX@Z ; cvflann::anyimpl::big_any_policy<enum cvflann::flann_algorithm_t>::static_delete
PUBLIC	?copy_from_value@?$big_any_policy@W4flann_algorithm_t@cvflann@@@anyimpl@cvflann@@UEAAXPEBXPEAPEAX@Z ; cvflann::anyimpl::big_any_policy<enum cvflann::flann_algorithm_t>::copy_from_value
PUBLIC	?clone@?$big_any_policy@W4flann_algorithm_t@cvflann@@@anyimpl@cvflann@@UEAAXPEBQEAXPEAPEAX@Z ; cvflann::anyimpl::big_any_policy<enum cvflann::flann_algorithm_t>::clone
PUBLIC	?move@?$big_any_policy@W4flann_algorithm_t@cvflann@@@anyimpl@cvflann@@UEAAXPEBQEAXPEAPEAX@Z ; cvflann::anyimpl::big_any_policy<enum cvflann::flann_algorithm_t>::move
PUBLIC	?get_value@?$big_any_policy@W4flann_algorithm_t@cvflann@@@anyimpl@cvflann@@UEAAPEAXPEAPEAX@Z ; cvflann::anyimpl::big_any_policy<enum cvflann::flann_algorithm_t>::get_value
PUBLIC	?get_value@?$big_any_policy@W4flann_algorithm_t@cvflann@@@anyimpl@cvflann@@UEAAPEBXPEBQEAX@Z ; cvflann::anyimpl::big_any_policy<enum cvflann::flann_algorithm_t>::get_value
PUBLIC	?get_size@?$typed_base_any_policy@V?$basic_string@DU?$char_traits@D@std@@V?$allocator@D@2@@std@@@anyimpl@cvflann@@UEAA_KXZ ; cvflann::anyimpl::typed_base_any_policy<std::basic_string<char,std::char_traits<char>,std::allocator<char> > >::get_size
PUBLIC	?type@?$typed_base_any_policy@V?$basic_string@DU?$char_traits@D@std@@V?$allocator@D@2@@std@@@anyimpl@cvflann@@UEAAAEBVtype_info@@XZ ; cvflann::anyimpl::typed_base_any_policy<std::basic_string<char,std::char_traits<char>,std::allocator<char> > >::type
PUBLIC	?static_delete@?$big_any_policy@V?$basic_string@DU?$char_traits@D@std@@V?$allocator@D@2@@std@@@anyimpl@cvflann@@UEAAXPEAPEAX@Z ; cvflann::anyimpl::big_any_policy<std::basic_string<char,std::char_traits<char>,std::allocator<char> > >::static_delete
PUBLIC	?copy_from_value@?$big_any_policy@V?$basic_string@DU?$char_traits@D@std@@V?$allocator@D@2@@std@@@anyimpl@cvflann@@UEAAXPEBXPEAPEAX@Z ; cvflann::anyimpl::big_any_policy<std::basic_string<char,std::char_traits<char>,std::allocator<char> > >::copy_from_value
PUBLIC	?clone@?$big_any_policy@V?$basic_string@DU?$char_traits@D@std@@V?$allocator@D@2@@std@@@anyimpl@cvflann@@UEAAXPEBQEAXPEAPEAX@Z ; cvflann::anyimpl::big_any_policy<std::basic_string<char,std::char_traits<char>,std::allocator<char> > >::clone
PUBLIC	?move@?$big_any_policy@V?$basic_string@DU?$char_traits@D@std@@V?$allocator@D@2@@std@@@anyimpl@cvflann@@UEAAXPEBQEAXPEAPEAX@Z ; cvflann::anyimpl::big_any_policy<std::basic_string<char,std::char_traits<char>,std::allocator<char> > >::move
PUBLIC	?get_value@?$big_any_policy@V?$basic_string@DU?$char_traits@D@std@@V?$allocator@D@2@@std@@@anyimpl@cvflann@@UEAAPEAXPEAPEAX@Z ; cvflann::anyimpl::big_any_policy<std::basic_string<char,std::char_traits<char>,std::allocator<char> > >::get_value
PUBLIC	?get_value@?$big_any_policy@V?$basic_string@DU?$char_traits@D@std@@V?$allocator@D@2@@std@@@anyimpl@cvflann@@UEAAPEBXPEBQEAX@Z ; cvflann::anyimpl::big_any_policy<std::basic_string<char,std::char_traits<char>,std::allocator<char> > >::get_value
PUBLIC	main
PUBLIC	vc_trab_fase1
PUBLIC	vc_binary_blob_labelling
PUBLIC	??1_InputOutputArray@cv@@QEAA@XZ		; cv::_InputOutputArray::~_InputOutputArray
PUBLIC	?print@?$big_any_policy@V?$basic_string@DU?$char_traits@D@std@@V?$allocator@D@2@@std@@@anyimpl@cvflann@@UEAAXAEAV?$basic_ostream@DU?$char_traits@D@std@@@std@@PEBQEAX@Z ; cvflann::anyimpl::big_any_policy<std::basic_string<char,std::char_traits<char>,std::allocator<char> > >::print
PUBLIC	?print@?$big_any_policy@W4flann_algorithm_t@cvflann@@@anyimpl@cvflann@@UEAAXAEAV?$basic_ostream@DU?$char_traits@D@std@@@std@@PEBQEAX@Z ; cvflann::anyimpl::big_any_policy<enum cvflann::flann_algorithm_t>::print
PUBLIC	?print@?$big_any_policy@W4flann_centers_init_t@cvflann@@@anyimpl@cvflann@@UEAAXAEAV?$basic_ostream@DU?$char_traits@D@std@@@std@@PEBQEAX@Z ; cvflann::anyimpl::big_any_policy<enum cvflann::flann_centers_init_t>::print
PUBLIC	??_Gbase_any_policy@anyimpl@cvflann@@UEAAPEAXI@Z ; cvflann::anyimpl::base_any_policy::`scalar deleting destructor'
PUBLIC	??1base_any_policy@anyimpl@cvflann@@UEAA@XZ	; cvflann::anyimpl::base_any_policy::~base_any_policy
PUBLIC	??6anyimpl@cvflann@@YAAEAV?$basic_ostream@DU?$char_traits@D@std@@@std@@AEAV23@AEBUempty_any@01@@Z ; cvflann::anyimpl::operator<<
PUBLIC	??0MatStep@cv@@QEAA@_K@Z			; cv::MatStep::MatStep
PUBLIC	??AMatSize@cv@@QEBAAEBHH@Z			; cv::MatSize::operator[]
PUBLIC	??0MatSize@cv@@QEAA@PEAH@Z			; cv::MatSize::MatSize
PUBLIC	?total@Mat@cv@@QEBA_KXZ				; cv::Mat::total
PUBLIC	?empty@Mat@cv@@QEBA_NXZ				; cv::Mat::empty
PUBLIC	?release@Mat@cv@@QEAAXXZ			; cv::Mat::release
PUBLIC	?__autoclassinit2@Mat@cv@@QEAAX_K@Z		; cv::Mat::__autoclassinit2
PUBLIC	??1Mat@cv@@QEAA@XZ				; cv::Mat::~Mat
PUBLIC	??0Mat@cv@@QEAA@XZ				; cv::Mat::Mat
PUBLIC	??0_InputOutputArray@cv@@QEAA@AEAVMat@1@@Z	; cv::_InputOutputArray::_InputOutputArray
PUBLIC	??1_OutputArray@cv@@QEAA@XZ			; cv::_OutputArray::~_OutputArray
PUBLIC	??0_OutputArray@cv@@QEAA@AEAVMat@1@@Z		; cv::_OutputArray::_OutputArray
PUBLIC	??0_OutputArray@cv@@QEAA@XZ			; cv::_OutputArray::_OutputArray
PUBLIC	??1_InputArray@cv@@QEAA@XZ			; cv::_InputArray::~_InputArray
PUBLIC	??0_InputArray@cv@@QEAA@AEBVMat@1@@Z		; cv::_InputArray::_InputArray
PUBLIC	??0_InputArray@cv@@QEAA@XZ			; cv::_InputArray::_InputArray
PUBLIC	?init@_InputArray@cv@@IEAAXHPEBX@Z		; cv::_InputArray::init
PUBLIC	?to_string@std@@YA?AV?$basic_string@DU?$char_traits@D@std@@V?$allocator@D@2@@1@H@Z ; std::to_string
PUBLIC	?_Release@_Fake_proxy_ptr_impl@std@@QEAAXXZ	; std::_Fake_proxy_ptr_impl::_Release
PUBLIC	??0_Fake_proxy_ptr_impl@std@@QEAA@AEBU_Fake_allocator@1@AEBU_Container_base0@1@@Z ; std::_Fake_proxy_ptr_impl::_Fake_proxy_ptr_impl
PUBLIC	?_Alloc_proxy@_Container_base0@std@@QEAAXAEBU_Fake_allocator@2@@Z ; std::_Container_base0::_Alloc_proxy
PUBLIC	?_Orphan_all@_Container_base0@std@@QEAAXXZ	; std::_Container_base0::_Orphan_all
PUBLIC	??$_Convert_size@_K@std@@YA_K_K@Z		; std::_Convert_size<unsigned __int64>
PUBLIC	?_Adjust_manually_vector_aligned@std@@YAXAEAPEAXAEA_K@Z ; std::_Adjust_manually_vector_aligned
PUBLIC	?_Allocate@_Default_allocate_traits@std@@SAPEAX_K@Z ; std::_Default_allocate_traits::_Allocate
PUBLIC	?max@?$numeric_limits@_J@std@@SA_JXZ		; std::numeric_limits<__int64>::max
PUBLIC	??0bad_alloc@std@@QEAA@AEBV01@@Z		; std::bad_alloc::bad_alloc
PUBLIC	??0bad_array_new_length@std@@QEAA@AEBV01@@Z	; std::bad_array_new_length::bad_array_new_length
PUBLIC	?_Throw_bad_array_new_length@std@@YAXXZ		; std::_Throw_bad_array_new_length
PUBLIC	??1bad_array_new_length@std@@UEAA@XZ		; std::bad_array_new_length::~bad_array_new_length
PUBLIC	??_Gbad_array_new_length@std@@UEAAPEAXI@Z	; std::bad_array_new_length::`scalar deleting destructor'
PUBLIC	??0bad_array_new_length@std@@QEAA@XZ		; std::bad_array_new_length::bad_array_new_length
PUBLIC	??1bad_alloc@std@@UEAA@XZ			; std::bad_alloc::~bad_alloc
PUBLIC	??_Gbad_alloc@std@@UEAAPEAXI@Z			; std::bad_alloc::`scalar deleting destructor'
PUBLIC	??0bad_alloc@std@@AEAA@QEBD@Z			; std::bad_alloc::bad_alloc
PUBLIC	??_Gexception@std@@UEAAPEAXI@Z			; std::exception::`scalar deleting destructor'
PUBLIC	?what@exception@std@@UEBAPEBDXZ			; std::exception::what
PUBLIC	??1exception@std@@UEAA@XZ			; std::exception::~exception
PUBLIC	??0exception@std@@QEAA@AEBV01@@Z		; std::exception::exception
PUBLIC	??0exception@std@@QEAA@QEBDH@Z			; std::exception::exception
PUBLIC	printf
PUBLIC	_vfprintf_l
PUBLIC	__local_stdio_printf_options
PUBLIC	??2@YAPEAX_KPEAX@Z				; operator new
PUBLIC	?_OptionsStorage@?1??__local_stdio_printf_options@@9@4_KA ; `__local_stdio_printf_options'::`2'::_OptionsStorage
PUBLIC	?policy@?$SinglePolicy@I@anyimpl@cvflann@@0U?$small_any_policy@I@23@A ; cvflann::anyimpl::SinglePolicy<unsigned int>::policy
PUBLIC	?policy@?$SinglePolicy@W4flann_algorithm_t@cvflann@@@anyimpl@cvflann@@0U?$big_any_policy@W4flann_algorithm_t@cvflann@@@23@A ; cvflann::anyimpl::SinglePolicy<enum cvflann::flann_algorithm_t>::policy
PUBLIC	?policy@?$SinglePolicy@Uempty_any@anyimpl@cvflann@@@anyimpl@cvflann@@0U?$big_any_policy@Uempty_any@anyimpl@cvflann@@@23@A ; cvflann::anyimpl::SinglePolicy<cvflann::anyimpl::empty_any>::policy
PUBLIC	?policy@?$SinglePolicy@_N@anyimpl@cvflann@@0U?$small_any_policy@_N@23@A ; cvflann::anyimpl::SinglePolicy<bool>::policy
PUBLIC	?policy@?$SinglePolicy@V?$basic_string@DU?$char_traits@D@std@@V?$allocator@D@2@@std@@@anyimpl@cvflann@@0U?$big_any_policy@V?$basic_string@DU?$char_traits@D@std@@V?$allocator@D@2@@std@@@23@A ; cvflann::anyimpl::SinglePolicy<std::basic_string<char,std::char_traits<char>,std::allocator<char> > >::policy
PUBLIC	?policy@?$SinglePolicy@H@anyimpl@cvflann@@0U?$small_any_policy@H@23@A ; cvflann::anyimpl::SinglePolicy<int>::policy
PUBLIC	?policy@?$SinglePolicy@M@anyimpl@cvflann@@0U?$small_any_policy@M@23@A ; cvflann::anyimpl::SinglePolicy<float>::policy
PUBLIC	?policy@?$SinglePolicy@W4flann_centers_init_t@cvflann@@@anyimpl@cvflann@@0U?$big_any_policy@W4flann_centers_init_t@cvflann@@@23@A ; cvflann::anyimpl::SinglePolicy<enum cvflann::flann_centers_init_t>::policy
PUBLIC	?policy@?$SinglePolicy@PEBD@anyimpl@cvflann@@0U?$small_any_policy@PEBD@23@A ; cvflann::anyimpl::SinglePolicy<char const *>::policy
PUBLIC	__real@3e19999a
PUBLIC	__real@3f7851ec
PUBLIC	__real@3f7c28f6
PUBLIC	__real@3f847ae147ae147b
PUBLIC	__real@3fbc28f5c28f5c29
PUBLIC	__real@3fc3333333333333
PUBLIC	__real@3fd3333333333333
PUBLIC	__real@3fd999999999999a
PUBLIC	__real@3fe2e147ae147ae1
PUBLIC	__real@3ff0000000000000
PUBLIC	__real@4008000000000000
PUBLIC	__real@41200000
PUBLIC	__real@42c80000
PUBLIC	__real@430c0000
PUBLIC	__xmm@00000000000000000000000042ff0000
PUBLIC	__xmm@0000000000000000406fe00000000000
PUBLIC	__xmm@406fe00000000000406fe00000000000
EXTRN	??_Eexception@std@@UEAAPEAXI@Z:PROC		; std::exception::`vector deleting destructor'
EXTRN	??_Ebad_alloc@std@@UEAAPEAXI@Z:PROC		; std::bad_alloc::`vector deleting destructor'
EXTRN	??_Ebad_array_new_length@std@@UEAAPEAXI@Z:PROC	; std::bad_array_new_length::`vector deleting destructor'
EXTRN	??_E?$big_any_policy@W4flann_centers_init_t@cvflann@@@anyimpl@cvflann@@UEAAPEAXI@Z:PROC ; cvflann::anyimpl::big_any_policy<enum cvflann::flann_centers_init_t>::`vector deleting destructor'
EXTRN	??_E?$big_any_policy@W4flann_algorithm_t@cvflann@@@anyimpl@cvflann@@UEAAPEAXI@Z:PROC ; cvflann::anyimpl::big_any_policy<enum cvflann::flann_algorithm_t>::`vector deleting destructor'
EXTRN	??_E?$small_any_policy@I@anyimpl@cvflann@@UEAAPEAXI@Z:PROC ; cvflann::anyimpl::small_any_policy<unsigned int>::`vector deleting destructor'
EXTRN	??_E?$big_any_policy@V?$basic_string@DU?$char_traits@D@std@@V?$allocator@D@2@@std@@@anyimpl@cvflann@@UEAAPEAXI@Z:PROC ; cvflann::anyimpl::big_any_policy<std::basic_string<char,std::char_traits<char>,std::allocator<char> > >::`vector deleting destructor'
EXTRN	??_E?$small_any_policy@H@anyimpl@cvflann@@UEAAPEAXI@Z:PROC ; cvflann::anyimpl::small_any_policy<int>::`vector deleting destructor'
EXTRN	??_Ebase_any_policy@anyimpl@cvflann@@UEAAPEAXI@Z:PROC ; cvflann::anyimpl::base_any_policy::`vector deleting destructor'
EXTRN	??_E?$small_any_policy@PEBD@anyimpl@cvflann@@UEAAPEAXI@Z:PROC ; cvflann::anyimpl::small_any_policy<char const *>::`vector deleting destructor'
EXTRN	??_E?$big_any_policy@Uempty_any@anyimpl@cvflann@@@anyimpl@cvflann@@UEAAPEAXI@Z:PROC ; cvflann::anyimpl::big_any_policy<cvflann::anyimpl::empty_any>::`vector deleting destructor'
EXTRN	??_E?$small_any_policy@_N@anyimpl@cvflann@@UEAAPEAXI@Z:PROC ; cvflann::anyimpl::small_any_policy<bool>::`vector deleting destructor'
EXTRN	??_E?$small_any_policy@M@anyimpl@cvflann@@UEAAPEAXI@Z:PROC ; cvflann::anyimpl::small_any_policy<float>::`vector deleting destructor'
EXTRN	??1VideoCapture@cv@@UEAA@XZ:PROC		; cv::VideoCapture::~VideoCapture
EXTRN	_CxxThrowException:PROC
EXTRN	__CxxFrameHandler4:PROC
EXTRN	__GSHandlerCheck:PROC
EXTRN	__GSHandlerCheck_EH4:PROC
EXTRN	__std_terminate:PROC
EXTRN	memcpy:PROC
EXTRN	memmove:PROC
EXTRN	memset:PROC
EXTRN	sqrt:PROC
EXTRN	__security_cookie:QWORD
EXTRN	_fltused:DWORD
;	COMDAT ?_OptionsStorage@?1??__local_stdio_printf_options@@9@4_KA
_BSS	SEGMENT
?_OptionsStorage@?1??__local_stdio_printf_options@@9@4_KA DQ 01H DUP (?) ; `__local_stdio_printf_options'::`2'::_OptionsStorage
_BSS	ENDS
;	COMDAT pdata
pdata	SEGMENT
$pdata$??_G?$big_any_policy@V?$basic_string@DU?$char_traits@D@std@@V?$allocator@D@2@@std@@@anyimpl@cvflann@@UEAAPEAXI@Z DD imagerel $LN7
	DD	imagerel $LN7+43
	DD	imagerel $unwind$??_G?$big_any_policy@V?$basic_string@DU?$char_traits@D@std@@V?$allocator@D@2@@std@@@anyimpl@cvflann@@UEAAPEAXI@Z
pdata	ENDS
;	COMDAT pdata
pdata	SEGMENT
$pdata$??_G?$small_any_policy@I@anyimpl@cvflann@@UEAAPEAXI@Z DD imagerel $LN7
	DD	imagerel $LN7+43
	DD	imagerel $unwind$??_G?$small_any_policy@I@anyimpl@cvflann@@UEAAPEAXI@Z
pdata	ENDS
;	COMDAT pdata
pdata	SEGMENT
$pdata$??_G?$big_any_policy@W4flann_centers_init_t@cvflann@@@anyimpl@cvflann@@UEAAPEAXI@Z DD imagerel $LN7
	DD	imagerel $LN7+43
	DD	imagerel $unwind$??_G?$big_any_policy@W4flann_centers_init_t@cvflann@@@anyimpl@cvflann@@UEAAPEAXI@Z
pdata	ENDS
;	COMDAT pdata
pdata	SEGMENT
$pdata$??_G?$big_any_policy@W4flann_algorithm_t@cvflann@@@anyimpl@cvflann@@UEAAPEAXI@Z DD imagerel $LN7
	DD	imagerel $LN7+43
	DD	imagerel $unwind$??_G?$big_any_policy@W4flann_algorithm_t@cvflann@@@anyimpl@cvflann@@UEAAPEAXI@Z
pdata	ENDS
;	COMDAT pdata
pdata	SEGMENT
$pdata$??_G?$small_any_policy@_N@anyimpl@cvflann@@UEAAPEAXI@Z DD imagerel $LN7
	DD	imagerel $LN7+43
	DD	imagerel $unwind$??_G?$small_any_policy@_N@anyimpl@cvflann@@UEAAPEAXI@Z
pdata	ENDS
;	COMDAT pdata
pdata	SEGMENT
$pdata$??_G?$small_any_policy@M@anyimpl@cvflann@@UEAAPEAXI@Z DD imagerel $LN7
	DD	imagerel $LN7+43
	DD	imagerel $unwind$??_G?$small_any_policy@M@anyimpl@cvflann@@UEAAPEAXI@Z
pdata	ENDS
;	COMDAT pdata
pdata	SEGMENT
$pdata$??_G?$small_any_policy@H@anyimpl@cvflann@@UEAAPEAXI@Z DD imagerel $LN7
	DD	imagerel $LN7+43
	DD	imagerel $unwind$??_G?$small_any_policy@H@anyimpl@cvflann@@UEAAPEAXI@Z
pdata	ENDS
;	COMDAT pdata
pdata	SEGMENT
$pdata$??_G?$small_any_policy@PEBD@anyimpl@cvflann@@UEAAPEAXI@Z DD imagerel $LN7
	DD	imagerel $LN7+43
	DD	imagerel $unwind$??_G?$small_any_policy@PEBD@anyimpl@cvflann@@UEAAPEAXI@Z
pdata	ENDS
;	COMDAT pdata
pdata	SEGMENT
$pdata$??_G?$big_any_policy@Uempty_any@anyimpl@cvflann@@@anyimpl@cvflann@@UEAAPEAXI@Z DD imagerel $LN7
	DD	imagerel $LN7+43
	DD	imagerel $unwind$??_G?$big_any_policy@Uempty_any@anyimpl@cvflann@@@anyimpl@cvflann@@UEAAPEAXI@Z
pdata	ENDS
;	COMDAT pdata
pdata	SEGMENT
$pdata$??$_Reallocate_grow_by@V<lambda_f3a66ab6a0570788f31503db83886f49>@@_KPEBD_K@?$basic_string@DU?$char_traits@D@std@@V?$allocator@D@2@@std@@AEAAAEAV01@_KV<lambda_f3a66ab6a0570788f31503db83886f49>@@_KPEBD2@Z DD imagerel $LN77
	DD	imagerel $LN77+369
	DD	imagerel $unwind$??$_Reallocate_grow_by@V<lambda_f3a66ab6a0570788f31503db83886f49>@@_KPEBD_K@?$basic_string@DU?$char_traits@D@std@@V?$allocator@D@2@@std@@AEAAAEAV01@_KV<lambda_f3a66ab6a0570788f31503db83886f49>@@_KPEBD2@Z
pdata	ENDS
;	COMDAT pdata
pdata	SEGMENT
$pdata$??$_Allocate_manually_vector_aligned@U_Default_allocate_traits@std@@@std@@YAPEAX_K@Z DD imagerel $LN17
	DD	imagerel $LN17+59
	DD	imagerel $unwind$??$_Allocate_manually_vector_aligned@U_Default_allocate_traits@std@@@std@@YAPEAX_K@Z
pdata	ENDS
;	COMDAT pdata
pdata	SEGMENT
$pdata$??$?0PEAD$0A@@?$basic_string@DU?$char_traits@D@std@@V?$allocator@D@2@@std@@QEAA@PEAD0AEBV?$allocator@D@1@@Z DD imagerel $LN15
	DD	imagerel $LN15+50
	DD	imagerel $unwind$??$?0PEAD$0A@@?$basic_string@DU?$char_traits@D@std@@V?$allocator@D@2@@std@@QEAA@PEAD0AEBV?$allocator@D@1@@Z
pdata	ENDS
;	COMDAT pdata
pdata	SEGMENT
$pdata$??R<lambda_f3a66ab6a0570788f31503db83886f49>@@QEBAXQEADQEBD_K212@Z DD imagerel $LN11
	DD	imagerel $LN11+86
	DD	imagerel $unwind$??R<lambda_f3a66ab6a0570788f31503db83886f49>@@QEBAXQEADQEBD_K212@Z
pdata	ENDS
;	COMDAT pdata
pdata	SEGMENT
$pdata$?insert@?$basic_string@DU?$char_traits@D@std@@V?$allocator@D@2@@std@@QEAAAEAV12@_KQEBD0@Z DD imagerel $LN22
	DD	imagerel $LN22+48
	DD	imagerel $unwind$?insert@?$basic_string@DU?$char_traits@D@std@@V?$allocator@D@2@@std@@QEAAAEAV12@_KQEBD0@Z
pdata	ENDS
;	COMDAT pdata
pdata	SEGMENT
$pdata$1$?insert@?$basic_string@DU?$char_traits@D@std@@V?$allocator@D@2@@std@@QEAAAEAV12@_KQEBD0@Z DD imagerel $LN22+48
	DD	imagerel $LN22+197
	DD	imagerel $chain$1$?insert@?$basic_string@DU?$char_traits@D@std@@V?$allocator@D@2@@std@@QEAAAEAV12@_KQEBD0@Z
pdata	ENDS
;	COMDAT pdata
pdata	SEGMENT
$pdata$2$?insert@?$basic_string@DU?$char_traits@D@std@@V?$allocator@D@2@@std@@QEAAAEAV12@_KQEBD0@Z DD imagerel $LN22+197
	DD	imagerel $LN22+235
	DD	imagerel $chain$2$?insert@?$basic_string@DU?$char_traits@D@std@@V?$allocator@D@2@@std@@QEAAAEAV12@_KQEBD0@Z
pdata	ENDS
;	COMDAT pdata
pdata	SEGMENT
$pdata$?insert@?$basic_string@DU?$char_traits@D@std@@V?$allocator@D@2@@std@@QEAAAEAV12@_KAEBV12@@Z DD imagerel $LN29
	DD	imagerel $LN29+59
	DD	imagerel $unwind$?insert@?$basic_string@DU?$char_traits@D@std@@V?$allocator@D@2@@std@@QEAAAEAV12@_KAEBV12@@Z
pdata	ENDS
;	COMDAT pdata
pdata	SEGMENT
$pdata$1$?insert@?$basic_string@DU?$char_traits@D@std@@V?$allocator@D@2@@std@@QEAAAEAV12@_KAEBV12@@Z DD imagerel $LN29+59
	DD	imagerel $LN29+209
	DD	imagerel $chain$1$?insert@?$basic_string@DU?$char_traits@D@std@@V?$allocator@D@2@@std@@QEAAAEAV12@_KAEBV12@@Z
pdata	ENDS
;	COMDAT pdata
pdata	SEGMENT
$pdata$2$?insert@?$basic_string@DU?$char_traits@D@std@@V?$allocator@D@2@@std@@QEAAAEAV12@_KAEBV12@@Z DD imagerel $LN29+209
	DD	imagerel $LN29+247
	DD	imagerel $chain$2$?insert@?$basic_string@DU?$char_traits@D@std@@V?$allocator@D@2@@std@@QEAAAEAV12@_KAEBV12@@Z
pdata	ENDS
;	COMDAT pdata
pdata	SEGMENT
$pdata$?_Xlen@?$basic_string@DU?$char_traits@D@std@@V?$allocator@D@2@@std@@CAXXZ DD imagerel $LN4
	DD	imagerel $LN4+18
	DD	imagerel $unwind$?_Xlen@?$basic_string@DU?$char_traits@D@std@@V?$allocator@D@2@@std@@CAXXZ
pdata	ENDS
;	COMDAT pdata
pdata	SEGMENT
$pdata$?static_delete@?$big_any_policy@Uempty_any@anyimpl@cvflann@@@anyimpl@cvflann@@UEAAXPEAPEAX@Z DD imagerel $LN8
	DD	imagerel $LN8+53
	DD	imagerel $unwind$?static_delete@?$big_any_policy@Uempty_any@anyimpl@cvflann@@@anyimpl@cvflann@@UEAAXPEAPEAX@Z
pdata	ENDS
;	COMDAT pdata
pdata	SEGMENT
$pdata$?copy_from_value@?$big_any_policy@Uempty_any@anyimpl@cvflann@@@anyimpl@cvflann@@UEAAXPEBXPEAPEAX@Z DD imagerel $LN4
	DD	imagerel $LN4+28
	DD	imagerel $unwind$?copy_from_value@?$big_any_policy@Uempty_any@anyimpl@cvflann@@@anyimpl@cvflann@@UEAAXPEBXPEAPEAX@Z
pdata	ENDS
;	COMDAT pdata
pdata	SEGMENT
$pdata$?clone@?$big_any_policy@Uempty_any@anyimpl@cvflann@@@anyimpl@cvflann@@UEAAXPEBQEAXPEAPEAX@Z DD imagerel $LN4
	DD	imagerel $LN4+28
	DD	imagerel $unwind$?clone@?$big_any_policy@Uempty_any@anyimpl@cvflann@@@anyimpl@cvflann@@UEAAXPEBQEAXPEAPEAX@Z
pdata	ENDS
;	COMDAT pdata
pdata	SEGMENT
$pdata$??$_Deallocate@$0BA@$0A@@std@@YAXPEAX_K@Z DD imagerel $LN18
	DD	imagerel $LN18+53
	DD	imagerel $unwind$??$_Deallocate@$0BA@$0A@@std@@YAXPEAX_K@Z
pdata	ENDS
;	COMDAT pdata
pdata	SEGMENT
$pdata$??$_Allocate@$0BA@U_Default_allocate_traits@std@@$0A@@std@@YAPEAX_K@Z DD imagerel $LN24
	DD	imagerel $LN24+89
	DD	imagerel $unwind$??$_Allocate@$0BA@U_Default_allocate_traits@std@@$0A@@std@@YAPEAX_K@Z
pdata	ENDS
;	COMDAT pdata
pdata	SEGMENT
$pdata$??$_Reallocate_grow_by@V<lambda_65e615be2a453ca0576c979606f46740>@@PEBD_K@?$basic_string@DU?$char_traits@D@std@@V?$allocator@D@2@@std@@AEAAAEAV01@_KV<lambda_65e615be2a453ca0576c979606f46740>@@PEBD_K@Z DD imagerel $LN73
	DD	imagerel $LN73+380
	DD	imagerel $unwind$??$_Reallocate_grow_by@V<lambda_65e615be2a453ca0576c979606f46740>@@PEBD_K@?$basic_string@DU?$char_traits@D@std@@V?$allocator@D@2@@std@@AEAAAEAV01@_KV<lambda_65e615be2a453ca0576c979606f46740>@@PEBD_K@Z
pdata	ENDS
;	COMDAT pdata
pdata	SEGMENT
$pdata$??$_Reallocate_for@V<lambda_66f57f934f28d61049862f64df852ff0>@@PEBD@?$basic_string@DU?$char_traits@D@std@@V?$allocator@D@2@@std@@AEAAAEAV01@_KV<lambda_66f57f934f28d61049862f64df852ff0>@@PEBD@Z DD imagerel $LN65
	DD	imagerel $LN65+303
	DD	imagerel $unwind$??$_Reallocate_for@V<lambda_66f57f934f28d61049862f64df852ff0>@@PEBD@?$basic_string@DU?$char_traits@D@std@@V?$allocator@D@2@@std@@AEAAAEAV01@_KV<lambda_66f57f934f28d61049862f64df852ff0>@@PEBD@Z
pdata	ENDS
;	COMDAT pdata
pdata	SEGMENT
$pdata$??$?HDU?$char_traits@D@std@@V?$allocator@D@1@@std@@YA?AV?$basic_string@DU?$char_traits@D@std@@V?$allocator@D@2@@0@$$QEAV10@0@Z DD imagerel $LN83
	DD	imagerel $LN83+71
	DD	imagerel $unwind$??$?HDU?$char_traits@D@std@@V?$allocator@D@1@@std@@YA?AV?$basic_string@DU?$char_traits@D@std@@V?$allocator@D@2@@0@$$QEAV10@0@Z
pdata	ENDS
;	COMDAT pdata
pdata	SEGMENT
$pdata$1$??$?HDU?$char_traits@D@std@@V?$allocator@D@1@@std@@YA?AV?$basic_string@DU?$char_traits@D@std@@V?$allocator@D@2@@0@$$QEAV10@0@Z DD imagerel $LN83+71
	DD	imagerel $LN83+257
	DD	imagerel $chain$1$??$?HDU?$char_traits@D@std@@V?$allocator@D@1@@std@@YA?AV?$basic_string@DU?$char_traits@D@std@@V?$allocator@D@2@@0@$$QEAV10@0@Z
pdata	ENDS
;	COMDAT pdata
pdata	SEGMENT
$pdata$2$??$?HDU?$char_traits@D@std@@V?$allocator@D@1@@std@@YA?AV?$basic_string@DU?$char_traits@D@std@@V?$allocator@D@2@@0@$$QEAV10@0@Z DD imagerel $LN83+257
	DD	imagerel $LN83+399
	DD	imagerel $chain$2$??$?HDU?$char_traits@D@std@@V?$allocator@D@1@@std@@YA?AV?$basic_string@DU?$char_traits@D@std@@V?$allocator@D@2@@0@$$QEAV10@0@Z
pdata	ENDS
;	COMDAT pdata
pdata	SEGMENT
$pdata$??$?HDU?$char_traits@D@std@@V?$allocator@D@1@@std@@YA?AV?$basic_string@DU?$char_traits@D@std@@V?$allocator@D@2@@0@$$QEAV10@QEBD@Z DD imagerel $LN34
	DD	imagerel $LN34+148
	DD	imagerel $unwind$??$?HDU?$char_traits@D@std@@V?$allocator@D@1@@std@@YA?AV?$basic_string@DU?$char_traits@D@std@@V?$allocator@D@2@@0@$$QEAV10@QEBD@Z
pdata	ENDS
;	COMDAT pdata
pdata	SEGMENT
$pdata$??$?6U?$char_traits@D@std@@@std@@YAAEAV?$basic_ostream@DU?$char_traits@D@std@@@0@AEAV10@PEBD@Z DD imagerel $LN99
	DD	imagerel $LN99+458
	DD	imagerel $unwind$??$?6U?$char_traits@D@std@@@std@@YAAEAV?$basic_ostream@DU?$char_traits@D@std@@@0@AEAV10@PEBD@Z
pdata	ENDS
;	COMDAT pdata
pdata	SEGMENT
$pdata$?catch$4@?0???$?6U?$char_traits@D@std@@@std@@YAAEAV?$basic_ostream@DU?$char_traits@D@std@@@0@AEAV10@PEBD@Z@4HA DD imagerel ?catch$4@?0???$?6U?$char_traits@D@std@@@std@@YAAEAV?$basic_ostream@DU?$char_traits@D@std@@@0@AEAV10@PEBD@Z@4HA
	DD	imagerel ?catch$4@?0???$?6U?$char_traits@D@std@@@std@@YAAEAV?$basic_ostream@DU?$char_traits@D@std@@@0@AEAV10@PEBD@Z@4HA+59
	DD	imagerel $unwind$?catch$4@?0???$?6U?$char_traits@D@std@@@std@@YAAEAV?$basic_ostream@DU?$char_traits@D@std@@@0@AEAV10@PEBD@Z@4HA
pdata	ENDS
;	COMDAT pdata
pdata	SEGMENT
$pdata$??$_Integral_to_string@DH@std@@YA?AV?$basic_string@DU?$char_traits@D@std@@V?$allocator@D@2@@0@H@Z DD imagerel $LN37
	DD	imagerel $LN37+224
	DD	imagerel $unwind$??$_Integral_to_string@DH@std@@YA?AV?$basic_string@DU?$char_traits@D@std@@V?$allocator@D@2@@0@H@Z
pdata	ENDS
;	COMDAT pdata
pdata	SEGMENT
$pdata$?_Xran@?$_String_val@U?$_Simple_types@D@std@@@std@@SAXXZ DD imagerel $LN4
	DD	imagerel $LN4+18
	DD	imagerel $unwind$?_Xran@?$_String_val@U?$_Simple_types@D@std@@@std@@SAXXZ
pdata	ENDS
;	COMDAT pdata
pdata	SEGMENT
$pdata$??0_Sentry_base@?$basic_ostream@DU?$char_traits@D@std@@@std@@QEAA@AEAV12@@Z DD imagerel $LN8
	DD	imagerel $LN8+44
	DD	imagerel $unwind$??0_Sentry_base@?$basic_ostream@DU?$char_traits@D@std@@@std@@QEAA@AEAV12@@Z
pdata	ENDS
;	COMDAT pdata
pdata	SEGMENT
$pdata$??1_Sentry_base@?$basic_ostream@DU?$char_traits@D@std@@@std@@QEAA@XZ DD imagerel $LN8
	DD	imagerel $LN8+36
	DD	imagerel $unwind$??1_Sentry_base@?$basic_ostream@DU?$char_traits@D@std@@@std@@QEAA@XZ
pdata	ENDS
;	COMDAT pdata
pdata	SEGMENT
$pdata$?copy@?$_Narrow_char_traits@DH@std@@SAPEADQEADQEBD_K@Z DD imagerel $LN5
	DD	imagerel $LN5+23
	DD	imagerel $unwind$?copy@?$_Narrow_char_traits@DH@std@@SAPEADQEADQEBD_K@Z
pdata	ENDS
;	COMDAT pdata
pdata	SEGMENT
$pdata$?deallocate@?$allocator@D@std@@QEAAXQEAD_K@Z DD imagerel $LN22
	DD	imagerel $LN22+64
	DD	imagerel $unwind$?deallocate@?$allocator@D@std@@QEAAXQEAD_K@Z
pdata	ENDS
;	COMDAT pdata
pdata	SEGMENT
$pdata$?allocate@?$allocator@D@std@@QEAAPEAD_K@Z DD imagerel $LN27
	DD	imagerel $LN27+89
	DD	imagerel $unwind$?allocate@?$allocator@D@std@@QEAAPEAD_K@Z
pdata	ENDS
;	COMDAT pdata
pdata	SEGMENT
$pdata$?_Construct_lv_contents@?$basic_string@DU?$char_traits@D@std@@V?$allocator@D@2@@std@@AEAAXAEBV12@@Z DD imagerel $LN44
	DD	imagerel $LN44+230
	DD	imagerel $unwind$?_Construct_lv_contents@?$basic_string@DU?$char_traits@D@std@@V?$allocator@D@2@@std@@AEAAXAEBV12@@Z
pdata	ENDS
;	COMDAT pdata
pdata	SEGMENT
$pdata$??R<lambda_65e615be2a453ca0576c979606f46740>@@QEBAXQEADQEBD_K12@Z DD imagerel $LN9
	DD	imagerel $LN9+72
	DD	imagerel $unwind$??R<lambda_65e615be2a453ca0576c979606f46740>@@QEBAXQEADQEBD_K12@Z
pdata	ENDS
;	COMDAT pdata
pdata	SEGMENT
$pdata$?append@?$basic_string@DU?$char_traits@D@std@@V?$allocator@D@2@@std@@QEAAAEAV12@QEBD_K@Z DD imagerel $LN13
	DD	imagerel $LN13+35
	DD	imagerel $unwind$?append@?$basic_string@DU?$char_traits@D@std@@V?$allocator@D@2@@std@@QEAAAEAV12@QEBD_K@Z
pdata	ENDS
;	COMDAT pdata
pdata	SEGMENT
$pdata$0$?append@?$basic_string@DU?$char_traits@D@std@@V?$allocator@D@2@@std@@QEAAAEAV12@QEBD_K@Z DD imagerel $LN13+35
	DD	imagerel $LN13+98
	DD	imagerel $chain$0$?append@?$basic_string@DU?$char_traits@D@std@@V?$allocator@D@2@@std@@QEAAAEAV12@QEBD_K@Z
pdata	ENDS
;	COMDAT pdata
pdata	SEGMENT
$pdata$1$?append@?$basic_string@DU?$char_traits@D@std@@V?$allocator@D@2@@std@@QEAAAEAV12@QEBD_K@Z DD imagerel $LN13+98
	DD	imagerel $LN13+128
	DD	imagerel $chain$1$?append@?$basic_string@DU?$char_traits@D@std@@V?$allocator@D@2@@std@@QEAAAEAV12@QEBD_K@Z
pdata	ENDS
;	COMDAT pdata
pdata	SEGMENT
$pdata$??R<lambda_66f57f934f28d61049862f64df852ff0>@@QEBAXQEAD_KQEBD@Z DD imagerel $LN7
	DD	imagerel $LN7+42
	DD	imagerel $unwind$??R<lambda_66f57f934f28d61049862f64df852ff0>@@QEBAXQEAD_KQEBD@Z
pdata	ENDS
;	COMDAT pdata
pdata	SEGMENT
$pdata$?assign@?$basic_string@DU?$char_traits@D@std@@V?$allocator@D@2@@std@@QEAAAEAV12@QEBD_K@Z DD imagerel $LN77
	DD	imagerel $LN77+340
	DD	imagerel $unwind$?assign@?$basic_string@DU?$char_traits@D@std@@V?$allocator@D@2@@std@@QEAAAEAV12@QEBD_K@Z
pdata	ENDS
;	COMDAT pdata
pdata	SEGMENT
$pdata$?_Tidy_deallocate@?$basic_string@DU?$char_traits@D@std@@V?$allocator@D@2@@std@@AEAAXXZ DD imagerel $LN28
	DD	imagerel $LN28+96
	DD	imagerel $unwind$?_Tidy_deallocate@?$basic_string@DU?$char_traits@D@std@@V?$allocator@D@2@@std@@AEAAXXZ
pdata	ENDS
;	COMDAT pdata
pdata	SEGMENT
$pdata$??0sentry@?$basic_ostream@DU?$char_traits@D@std@@@std@@QEAA@AEAV12@@Z DD imagerel $LN24
	DD	imagerel $LN24+122
	DD	imagerel $unwind$??0sentry@?$basic_ostream@DU?$char_traits@D@std@@@std@@QEAA@AEAV12@@Z
pdata	ENDS
;	COMDAT pdata
pdata	SEGMENT
$pdata$??1sentry@?$basic_ostream@DU?$char_traits@D@std@@@std@@QEAA@XZ DD imagerel $LN13
	DD	imagerel $LN13+62
	DD	imagerel $unwind$??1sentry@?$basic_ostream@DU?$char_traits@D@std@@@std@@QEAA@XZ
pdata	ENDS
;	COMDAT pdata
pdata	SEGMENT
$pdata$??_G?$basic_string@DU?$char_traits@D@std@@V?$allocator@D@2@@std@@QEAAPEAXI@Z DD imagerel $LN36
	DD	imagerel $LN36+129
	DD	imagerel $unwind$??_G?$basic_string@DU?$char_traits@D@std@@V?$allocator@D@2@@std@@QEAAPEAXI@Z
pdata	ENDS
;	COMDAT pdata
pdata	SEGMENT
$pdata$??0?$basic_string@DU?$char_traits@D@std@@V?$allocator@D@2@@std@@QEAA@AEBV01@@Z DD imagerel $LN50
	DD	imagerel $LN50+203
	DD	imagerel $unwind$??0?$basic_string@DU?$char_traits@D@std@@V?$allocator@D@2@@std@@QEAA@AEBV01@@Z
pdata	ENDS
;	COMDAT pdata
pdata	SEGMENT
$pdata$??0?$basic_string@DU?$char_traits@D@std@@V?$allocator@D@2@@std@@QEAA@QEBD@Z DD imagerel $LN16
	DD	imagerel $LN16+59
	DD	imagerel $unwind$??0?$basic_string@DU?$char_traits@D@std@@V?$allocator@D@2@@std@@QEAA@QEBD@Z
pdata	ENDS
;	COMDAT pdata
pdata	SEGMENT
$pdata$??1?$basic_string@DU?$char_traits@D@std@@V?$allocator@D@2@@std@@QEAA@XZ DD imagerel $LN31
	DD	imagerel $LN31+96
	DD	imagerel $unwind$??1?$basic_string@DU?$char_traits@D@std@@V?$allocator@D@2@@std@@QEAA@XZ
pdata	ENDS
;	COMDAT pdata
pdata	SEGMENT
$pdata$??4?$basic_string@DU?$char_traits@D@std@@V?$allocator@D@2@@std@@QEAAAEAV01@AEBV01@@Z DD imagerel $LN13
	DD	imagerel $LN13+48
	DD	imagerel $unwind$??4?$basic_string@DU?$char_traits@D@std@@V?$allocator@D@2@@std@@QEAAAEAV01@AEBV01@@Z
pdata	ENDS
;	COMDAT pdata
pdata	SEGMENT
$pdata$?append@?$basic_string@DU?$char_traits@D@std@@V?$allocator@D@2@@std@@QEAAAEAV12@AEBV12@@Z DD imagerel $LN20
	DD	imagerel $LN20+49
	DD	imagerel $unwind$?append@?$basic_string@DU?$char_traits@D@std@@V?$allocator@D@2@@std@@QEAAAEAV12@AEBV12@@Z
pdata	ENDS
;	COMDAT pdata
pdata	SEGMENT
$pdata$0$?append@?$basic_string@DU?$char_traits@D@std@@V?$allocator@D@2@@std@@QEAAAEAV12@AEBV12@@Z DD imagerel $LN20+49
	DD	imagerel $LN20+115
	DD	imagerel $chain$0$?append@?$basic_string@DU?$char_traits@D@std@@V?$allocator@D@2@@std@@QEAAAEAV12@AEBV12@@Z
pdata	ENDS
;	COMDAT pdata
pdata	SEGMENT
$pdata$1$?append@?$basic_string@DU?$char_traits@D@std@@V?$allocator@D@2@@std@@QEAAAEAV12@AEBV12@@Z DD imagerel $LN20+115
	DD	imagerel $LN20+142
	DD	imagerel $chain$1$?append@?$basic_string@DU?$char_traits@D@std@@V?$allocator@D@2@@std@@QEAAAEAV12@AEBV12@@Z
pdata	ENDS
;	COMDAT pdata
pdata	SEGMENT
$pdata$?append@?$basic_string@DU?$char_traits@D@std@@V?$allocator@D@2@@std@@QEAAAEAV12@QEBD@Z DD imagerel $LN18
	DD	imagerel $LN18+48
	DD	imagerel $unwind$?append@?$basic_string@DU?$char_traits@D@std@@V?$allocator@D@2@@std@@QEAAAEAV12@QEBD@Z
pdata	ENDS
;	COMDAT pdata
pdata	SEGMENT
$pdata$0$?append@?$basic_string@DU?$char_traits@D@std@@V?$allocator@D@2@@std@@QEAAAEAV12@QEBD@Z DD imagerel $LN18+48
	DD	imagerel $LN18+111
	DD	imagerel $chain$0$?append@?$basic_string@DU?$char_traits@D@std@@V?$allocator@D@2@@std@@QEAAAEAV12@QEBD@Z
pdata	ENDS
;	COMDAT pdata
pdata	SEGMENT
$pdata$1$?append@?$basic_string@DU?$char_traits@D@std@@V?$allocator@D@2@@std@@QEAAAEAV12@QEBD@Z DD imagerel $LN18+111
	DD	imagerel $LN18+141
	DD	imagerel $chain$1$?append@?$basic_string@DU?$char_traits@D@std@@V?$allocator@D@2@@std@@QEAAAEAV12@QEBD@Z
pdata	ENDS
;	COMDAT pdata
pdata	SEGMENT
$pdata$?static_delete@?$big_any_policy@W4flann_centers_init_t@cvflann@@@anyimpl@cvflann@@UEAAXPEAPEAX@Z DD imagerel $LN8
	DD	imagerel $LN8+53
	DD	imagerel $unwind$?static_delete@?$big_any_policy@W4flann_centers_init_t@cvflann@@@anyimpl@cvflann@@UEAAXPEAPEAX@Z
pdata	ENDS
;	COMDAT pdata
pdata	SEGMENT
$pdata$?copy_from_value@?$big_any_policy@W4flann_centers_init_t@cvflann@@@anyimpl@cvflann@@UEAAXPEBXPEAPEAX@Z DD imagerel $LN6
	DD	imagerel $LN6+44
	DD	imagerel $unwind$?copy_from_value@?$big_any_policy@W4flann_centers_init_t@cvflann@@@anyimpl@cvflann@@UEAAXPEBXPEAPEAX@Z
pdata	ENDS
;	COMDAT pdata
pdata	SEGMENT
$pdata$?clone@?$big_any_policy@W4flann_centers_init_t@cvflann@@@anyimpl@cvflann@@UEAAXPEBQEAXPEAPEAX@Z DD imagerel $LN6
	DD	imagerel $LN6+47
	DD	imagerel $unwind$?clone@?$big_any_policy@W4flann_centers_init_t@cvflann@@@anyimpl@cvflann@@UEAAXPEBQEAXPEAPEAX@Z
pdata	ENDS
;	COMDAT pdata
pdata	SEGMENT
$pdata$?static_delete@?$big_any_policy@W4flann_algorithm_t@cvflann@@@anyimpl@cvflann@@UEAAXPEAPEAX@Z DD imagerel $LN8
	DD	imagerel $LN8+53
	DD	imagerel $unwind$?static_delete@?$big_any_policy@W4flann_algorithm_t@cvflann@@@anyimpl@cvflann@@UEAAXPEAPEAX@Z
pdata	ENDS
;	COMDAT pdata
pdata	SEGMENT
$pdata$?copy_from_value@?$big_any_policy@W4flann_algorithm_t@cvflann@@@anyimpl@cvflann@@UEAAXPEBXPEAPEAX@Z DD imagerel $LN6
	DD	imagerel $LN6+44
	DD	imagerel $unwind$?copy_from_value@?$big_any_policy@W4flann_algorithm_t@cvflann@@@anyimpl@cvflann@@UEAAXPEBXPEAPEAX@Z
pdata	ENDS
;	COMDAT pdata
pdata	SEGMENT
$pdata$?clone@?$big_any_policy@W4flann_algorithm_t@cvflann@@@anyimpl@cvflann@@UEAAXPEBQEAXPEAPEAX@Z DD imagerel $LN6
	DD	imagerel $LN6+47
	DD	imagerel $unwind$?clone@?$big_any_policy@W4flann_algorithm_t@cvflann@@@anyimpl@cvflann@@UEAAXPEBQEAXPEAPEAX@Z
pdata	ENDS
;	COMDAT pdata
pdata	SEGMENT
$pdata$?static_delete@?$big_any_policy@V?$basic_string@DU?$char_traits@D@std@@V?$allocator@D@2@@std@@@anyimpl@cvflann@@UEAAXPEAPEAX@Z DD imagerel $LN42
	DD	imagerel $LN42+133
	DD	imagerel $unwind$?static_delete@?$big_any_policy@V?$basic_string@DU?$char_traits@D@std@@V?$allocator@D@2@@std@@@anyimpl@cvflann@@UEAAXPEAPEAX@Z
pdata	ENDS
;	COMDAT pdata
pdata	SEGMENT
$pdata$?copy_from_value@?$big_any_policy@V?$basic_string@DU?$char_traits@D@std@@V?$allocator@D@2@@std@@@anyimpl@cvflann@@UEAAXPEBXPEAPEAX@Z DD imagerel $LN8
	DD	imagerel $LN8+57
	DD	imagerel $unwind$?copy_from_value@?$big_any_policy@V?$basic_string@DU?$char_traits@D@std@@V?$allocator@D@2@@std@@@anyimpl@cvflann@@UEAAXPEBXPEAPEAX@Z
pdata	ENDS
;	COMDAT pdata
pdata	SEGMENT
$pdata$?dtor$0@?0??copy_from_value@?$big_any_policy@V?$basic_string@DU?$char_traits@D@std@@V?$allocator@D@2@@std@@@anyimpl@cvflann@@UEAAXPEBXPEAPEAX@Z@4HA DD imagerel ?dtor$0@?0??copy_from_value@?$big_any_policy@V?$basic_string@DU?$char_traits@D@std@@V?$allocator@D@2@@std@@@anyimpl@cvflann@@UEAAXPEBXPEAPEAX@Z@4HA
	DD	imagerel ?dtor$0@?0??copy_from_value@?$big_any_policy@V?$basic_string@DU?$char_traits@D@std@@V?$allocator@D@2@@std@@@anyimpl@cvflann@@UEAAXPEBXPEAPEAX@Z@4HA+29
	DD	imagerel $unwind$?dtor$0@?0??copy_from_value@?$big_any_policy@V?$basic_string@DU?$char_traits@D@std@@V?$allocator@D@2@@std@@@anyimpl@cvflann@@UEAAXPEBXPEAPEAX@Z@4HA
pdata	ENDS
;	COMDAT pdata
pdata	SEGMENT
$pdata$?clone@?$big_any_policy@V?$basic_string@DU?$char_traits@D@std@@V?$allocator@D@2@@std@@@anyimpl@cvflann@@UEAAXPEBQEAXPEAPEAX@Z DD imagerel $LN8
	DD	imagerel $LN8+57
	DD	imagerel $unwind$?clone@?$big_any_policy@V?$basic_string@DU?$char_traits@D@std@@V?$allocator@D@2@@std@@@anyimpl@cvflann@@UEAAXPEBQEAXPEAPEAX@Z
pdata	ENDS
;	COMDAT pdata
pdata	SEGMENT
$pdata$?dtor$0@?0??clone@?$big_any_policy@V?$basic_string@DU?$char_traits@D@std@@V?$allocator@D@2@@std@@@anyimpl@cvflann@@UEAAXPEBQEAXPEAPEAX@Z@4HA DD imagerel ?dtor$0@?0??clone@?$big_any_policy@V?$basic_string@DU?$char_traits@D@std@@V?$allocator@D@2@@std@@@anyimpl@cvflann@@UEAAXPEBQEAXPEAPEAX@Z@4HA
	DD	imagerel ?dtor$0@?0??clone@?$big_any_policy@V?$basic_string@DU?$char_traits@D@std@@V?$allocator@D@2@@std@@@anyimpl@cvflann@@UEAAXPEBQEAXPEAPEAX@Z@4HA+29
	DD	imagerel $unwind$?dtor$0@?0??clone@?$big_any_policy@V?$basic_string@DU?$char_traits@D@std@@V?$allocator@D@2@@std@@@anyimpl@cvflann@@UEAAXPEBQEAXPEAPEAX@Z@4HA
pdata	ENDS
;	COMDAT pdata
pdata	SEGMENT
$pdata$?move@?$big_any_policy@V?$basic_string@DU?$char_traits@D@std@@V?$allocator@D@2@@std@@@anyimpl@cvflann@@UEAAXPEBQEAXPEAPEAX@Z DD imagerel $LN49
	DD	imagerel $LN49+154
	DD	imagerel $unwind$?move@?$big_any_policy@V?$basic_string@DU?$char_traits@D@std@@V?$allocator@D@2@@std@@@anyimpl@cvflann@@UEAAXPEBQEAXPEAPEAX@Z
pdata	ENDS
;	COMDAT pdata
pdata	SEGMENT
$pdata$main DD	imagerel $LN1191
	DD	imagerel $LN1191+5646
	DD	imagerel $unwind$main
pdata	ENDS
;	COMDAT pdata
pdata	SEGMENT
$pdata$vc_trab_fase1 DD imagerel $LN25
	DD	imagerel $LN25+257
	DD	imagerel $unwind$vc_trab_fase1
pdata	ENDS
;	COMDAT pdata
pdata	SEGMENT
$pdata$vc_binary_blob_labelling DD imagerel $LN176
	DD	imagerel $LN176+1138
	DD	imagerel $unwind$vc_binary_blob_labelling
pdata	ENDS
;	COMDAT pdata
pdata	SEGMENT
$pdata$??_Gbase_any_policy@anyimpl@cvflann@@UEAAPEAXI@Z DD imagerel $LN7
	DD	imagerel $LN7+43
	DD	imagerel $unwind$??_Gbase_any_policy@anyimpl@cvflann@@UEAAPEAXI@Z
pdata	ENDS
;	COMDAT pdata
pdata	SEGMENT
$pdata$??6anyimpl@cvflann@@YAAEAV?$basic_ostream@DU?$char_traits@D@std@@@std@@AEAV23@AEBUempty_any@01@@Z DD imagerel $LN4
	DD	imagerel $LN4+30
	DD	imagerel $unwind$??6anyimpl@cvflann@@YAAEAV?$basic_ostream@DU?$char_traits@D@std@@@std@@AEAV23@AEBUempty_any@01@@Z
pdata	ENDS
;	COMDAT pdata
pdata	SEGMENT
$pdata$?release@Mat@cv@@QEAAXXZ DD imagerel $LN12
	DD	imagerel $LN12+106
	DD	imagerel $unwind$?release@Mat@cv@@QEAAXXZ
pdata	ENDS
;	COMDAT pdata
pdata	SEGMENT
$pdata$??1Mat@cv@@QEAA@XZ DD imagerel $LN16
	DD	imagerel $LN16+125
	DD	imagerel $unwind$??1Mat@cv@@QEAA@XZ
pdata	ENDS
;	COMDAT pdata
pdata	SEGMENT
$pdata$?to_string@std@@YA?AV?$basic_string@DU?$char_traits@D@std@@V?$allocator@D@2@@1@H@Z DD imagerel $LN41
	DD	imagerel $LN41+224
	DD	imagerel $unwind$?to_string@std@@YA?AV?$basic_string@DU?$char_traits@D@std@@V?$allocator@D@2@@1@H@Z
pdata	ENDS
;	COMDAT pdata
pdata	SEGMENT
$pdata$?_Adjust_manually_vector_aligned@std@@YAXAEAPEAXAEA_K@Z DD imagerel $LN13
	DD	imagerel $LN13+43
	DD	imagerel $unwind$?_Adjust_manually_vector_aligned@std@@YAXAEAPEAXAEA_K@Z
pdata	ENDS
;	COMDAT pdata
pdata	SEGMENT
$pdata$??0bad_alloc@std@@QEAA@AEBV01@@Z DD imagerel $LN8
	DD	imagerel $LN8+62
	DD	imagerel $unwind$??0bad_alloc@std@@QEAA@AEBV01@@Z
pdata	ENDS
;	COMDAT pdata
pdata	SEGMENT
$pdata$??0bad_array_new_length@std@@QEAA@AEBV01@@Z DD imagerel $LN11
	DD	imagerel $LN11+62
	DD	imagerel $unwind$??0bad_array_new_length@std@@QEAA@AEBV01@@Z
pdata	ENDS
;	COMDAT pdata
pdata	SEGMENT
$pdata$?_Throw_bad_array_new_length@std@@YAXXZ DD imagerel $LN4
	DD	imagerel $LN4+32
	DD	imagerel $unwind$?_Throw_bad_array_new_length@std@@YAXXZ
pdata	ENDS
;	COMDAT pdata
pdata	SEGMENT
$pdata$??1bad_array_new_length@std@@UEAA@XZ DD imagerel $LN11
	DD	imagerel $LN11+30
	DD	imagerel $unwind$??1bad_array_new_length@std@@UEAA@XZ
pdata	ENDS
;	COMDAT pdata
pdata	SEGMENT
$pdata$??_Gbad_array_new_length@std@@UEAAPEAXI@Z DD imagerel $LN16
	DD	imagerel $LN16+68
	DD	imagerel $unwind$??_Gbad_array_new_length@std@@UEAAPEAXI@Z
pdata	ENDS
;	COMDAT pdata
pdata	SEGMENT
$pdata$??1bad_alloc@std@@UEAA@XZ DD imagerel $LN8
	DD	imagerel $LN8+30
	DD	imagerel $unwind$??1bad_alloc@std@@UEAA@XZ
pdata	ENDS
;	COMDAT pdata
pdata	SEGMENT
$pdata$??_Gbad_alloc@std@@UEAAPEAXI@Z DD imagerel $LN13
	DD	imagerel $LN13+68
	DD	imagerel $unwind$??_Gbad_alloc@std@@UEAAPEAXI@Z
pdata	ENDS
;	COMDAT pdata
pdata	SEGMENT
$pdata$??_Gexception@std@@UEAAPEAXI@Z DD imagerel $LN10
	DD	imagerel $LN10+68
	DD	imagerel $unwind$??_Gexception@std@@UEAAPEAXI@Z
pdata	ENDS
;	COMDAT pdata
pdata	SEGMENT
$pdata$??1exception@std@@UEAA@XZ DD imagerel $LN5
	DD	imagerel $LN5+30
	DD	imagerel $unwind$??1exception@std@@UEAA@XZ
pdata	ENDS
;	COMDAT pdata
pdata	SEGMENT
$pdata$??0exception@std@@QEAA@AEBV01@@Z DD imagerel $LN5
	DD	imagerel $LN5+51
	DD	imagerel $unwind$??0exception@std@@QEAA@AEBV01@@Z
pdata	ENDS
;	COMDAT pdata
pdata	SEGMENT
$pdata$printf DD imagerel $LN6
	DD	imagerel $LN6+85
	DD	imagerel $unwind$printf
pdata	ENDS
;	COMDAT pdata
pdata	SEGMENT
$pdata$_vfprintf_l DD imagerel $LN4
	DD	imagerel $LN4+68
	DD	imagerel $unwind$_vfprintf_l
pdata	ENDS
;	COMDAT CRT$XCU
CRT$XCU	SEGMENT
??policy$initializer$@?$SinglePolicy@Uempty_any@anyimpl@cvflann@@@anyimpl@cvflann@@0P6AXXZEA@@3P6AXXZEA DQ FLAT:??__F?policy@?$SinglePolicy@Uempty_any@anyimpl@cvflann@@@anyimpl@cvflann@@0U?$big_any_policy@Uempty_any@anyimpl@cvflann@@@23@A@@YAXXZ ; ??policy$initializer$@?$SinglePolicy@Uempty_any@anyimpl@cvflann@@@anyimpl@cvflann@@0P6AXXZEA@@3P6AXXZEA
;	COMDAT __xmm@406fe00000000000406fe00000000000
CONST	SEGMENT
__xmm@406fe00000000000406fe00000000000 DB 00H, 00H, 00H, 00H, 00H, 0e0H, 'o'
	DB	'@', 00H, 00H, 00H, 00H, 00H, 0e0H, 'o@'
CONST	ENDS
;	COMDAT __xmm@0000000000000000406fe00000000000
CONST	SEGMENT
__xmm@0000000000000000406fe00000000000 DB 00H, 00H, 00H, 00H, 00H, 0e0H, 'o'
	DB	'@', 00H, 00H, 00H, 00H, 00H, 00H, 00H, 00H
CONST	ENDS
;	COMDAT __xmm@00000000000000000000000042ff0000
CONST	SEGMENT
__xmm@00000000000000000000000042ff0000 DB 00H, 00H, 0ffH, 'B', 00H, 00H, 00H
	DB	00H, 00H, 00H, 00H, 00H, 00H, 00H, 00H, 00H
CONST	ENDS
;	COMDAT __real@430c0000
CONST	SEGMENT
__real@430c0000 DD 0430c0000r			; 140
CONST	ENDS
;	COMDAT __real@42c80000
CONST	SEGMENT
__real@42c80000 DD 042c80000r			; 100
CONST	ENDS
;	COMDAT __real@41200000
CONST	SEGMENT
__real@41200000 DD 041200000r			; 10
CONST	ENDS
;	COMDAT __real@4008000000000000
CONST	SEGMENT
__real@4008000000000000 DQ 04008000000000000r	; 3
CONST	ENDS
;	COMDAT __real@3ff0000000000000
CONST	SEGMENT
__real@3ff0000000000000 DQ 03ff0000000000000r	; 1
CONST	ENDS
;	COMDAT __real@3fe2e147ae147ae1
CONST	SEGMENT
__real@3fe2e147ae147ae1 DQ 03fe2e147ae147ae1r	; 0.59
CONST	ENDS
;	COMDAT __real@3fd999999999999a
CONST	SEGMENT
__real@3fd999999999999a DQ 03fd999999999999ar	; 0.4
CONST	ENDS
;	COMDAT __real@3fd3333333333333
CONST	SEGMENT
__real@3fd3333333333333 DQ 03fd3333333333333r	; 0.3
CONST	ENDS
;	COMDAT __real@3fc3333333333333
CONST	SEGMENT
__real@3fc3333333333333 DQ 03fc3333333333333r	; 0.15
CONST	ENDS
;	COMDAT __real@3fbc28f5c28f5c29
CONST	SEGMENT
__real@3fbc28f5c28f5c29 DQ 03fbc28f5c28f5c29r	; 0.11
CONST	ENDS
;	COMDAT __real@3f847ae147ae147b
CONST	SEGMENT
__real@3f847ae147ae147b DQ 03f847ae147ae147br	; 0.01
CONST	ENDS
;	COMDAT __real@3f7c28f6
CONST	SEGMENT
__real@3f7c28f6 DD 03f7c28f6r			; 0.985
CONST	ENDS
;	COMDAT __real@3f7851ec
CONST	SEGMENT
__real@3f7851ec DD 03f7851ecr			; 0.97
CONST	ENDS
;	COMDAT __real@3e19999a
CONST	SEGMENT
__real@3e19999a DD 03e19999ar			; 0.15
CONST	ENDS
;	COMDAT ?policy@?$SinglePolicy@PEBD@anyimpl@cvflann@@0U?$small_any_policy@PEBD@23@A
_DATA	SEGMENT
?policy@?$SinglePolicy@PEBD@anyimpl@cvflann@@0U?$small_any_policy@PEBD@23@A DQ FLAT:??_7?$small_any_policy@PEBD@anyimpl@cvflann@@6B@ ; cvflann::anyimpl::SinglePolicy<char const *>::policy
_DATA	ENDS
;	COMDAT ?policy@?$SinglePolicy@W4flann_centers_init_t@cvflann@@@anyimpl@cvflann@@0U?$big_any_policy@W4flann_centers_init_t@cvflann@@@23@A
_DATA	SEGMENT
?policy@?$SinglePolicy@W4flann_centers_init_t@cvflann@@@anyimpl@cvflann@@0U?$big_any_policy@W4flann_centers_init_t@cvflann@@@23@A DQ FLAT:??_7?$big_any_policy@W4flann_centers_init_t@cvflann@@@anyimpl@cvflann@@6B@ ; cvflann::anyimpl::SinglePolicy<enum cvflann::flann_centers_init_t>::policy
_DATA	ENDS
;	COMDAT ?policy@?$SinglePolicy@M@anyimpl@cvflann@@0U?$small_any_policy@M@23@A
_DATA	SEGMENT
?policy@?$SinglePolicy@M@anyimpl@cvflann@@0U?$small_any_policy@M@23@A DQ FLAT:??_7?$small_any_policy@M@anyimpl@cvflann@@6B@ ; cvflann::anyimpl::SinglePolicy<float>::policy
_DATA	ENDS
;	COMDAT ?policy@?$SinglePolicy@H@anyimpl@cvflann@@0U?$small_any_policy@H@23@A
_DATA	SEGMENT
?policy@?$SinglePolicy@H@anyimpl@cvflann@@0U?$small_any_policy@H@23@A DQ FLAT:??_7?$small_any_policy@H@anyimpl@cvflann@@6B@ ; cvflann::anyimpl::SinglePolicy<int>::policy
_DATA	ENDS
;	COMDAT ?policy@?$SinglePolicy@V?$basic_string@DU?$char_traits@D@std@@V?$allocator@D@2@@std@@@anyimpl@cvflann@@0U?$big_any_policy@V?$basic_string@DU?$char_traits@D@std@@V?$allocator@D@2@@std@@@23@A
_DATA	SEGMENT
?policy@?$SinglePolicy@V?$basic_string@DU?$char_traits@D@std@@V?$allocator@D@2@@std@@@anyimpl@cvflann@@0U?$big_any_policy@V?$basic_string@DU?$char_traits@D@std@@V?$allocator@D@2@@std@@@23@A DQ FLAT:??_7?$big_any_policy@V?$basic_string@DU?$char_traits@D@std@@V?$allocator@D@2@@std@@@anyimpl@cvflann@@6B@ ; cvflann::anyimpl::SinglePolicy<std::basic_string<char,std::char_traits<char>,std::allocator<char> > >::policy
_DATA	ENDS
;	COMDAT ?policy@?$SinglePolicy@_N@anyimpl@cvflann@@0U?$small_any_policy@_N@23@A
_DATA	SEGMENT
?policy@?$SinglePolicy@_N@anyimpl@cvflann@@0U?$small_any_policy@_N@23@A DQ FLAT:??_7?$small_any_policy@_N@anyimpl@cvflann@@6B@ ; cvflann::anyimpl::SinglePolicy<bool>::policy
_DATA	ENDS
;	COMDAT ?policy@?$SinglePolicy@Uempty_any@anyimpl@cvflann@@@anyimpl@cvflann@@0U?$big_any_policy@Uempty_any@anyimpl@cvflann@@@23@A
_DATA	SEGMENT
?policy@?$SinglePolicy@Uempty_any@anyimpl@cvflann@@@anyimpl@cvflann@@0U?$big_any_policy@Uempty_any@anyimpl@cvflann@@@23@A DQ FLAT:??_7?$big_any_policy@Uempty_any@anyimpl@cvflann@@@anyimpl@cvflann@@6B@ ; cvflann::anyimpl::SinglePolicy<cvflann::anyimpl::empty_any>::policy
_DATA	ENDS
;	COMDAT ?policy@?$SinglePolicy@W4flann_algorithm_t@cvflann@@@anyimpl@cvflann@@0U?$big_any_policy@W4flann_algorithm_t@cvflann@@@23@A
_DATA	SEGMENT
?policy@?$SinglePolicy@W4flann_algorithm_t@cvflann@@@anyimpl@cvflann@@0U?$big_any_policy@W4flann_algorithm_t@cvflann@@@23@A DQ FLAT:??_7?$big_any_policy@W4flann_algorithm_t@cvflann@@@anyimpl@cvflann@@6B@ ; cvflann::anyimpl::SinglePolicy<enum cvflann::flann_algorithm_t>::policy
_DATA	ENDS
;	COMDAT ?policy@?$SinglePolicy@I@anyimpl@cvflann@@0U?$small_any_policy@I@23@A
_DATA	SEGMENT
?policy@?$SinglePolicy@I@anyimpl@cvflann@@0U?$small_any_policy@I@23@A DQ FLAT:??_7?$small_any_policy@I@anyimpl@cvflann@@6B@ ; cvflann::anyimpl::SinglePolicy<unsigned int>::policy
_DATA	ENDS
;	COMDAT xdata
xdata	SEGMENT
$unwind$_vfprintf_l DD 060f01H
	DD	09640fH
	DD	08340fH
	DD	0700b520fH
xdata	ENDS
;	COMDAT xdata
xdata	SEGMENT
$unwind$printf DD 041b01H
	DD	07017521bH
	DD	030156016H
xdata	ENDS
;	COMDAT xdata
xdata	SEGMENT
$ip2state$??0exception@std@@QEAA@AEBV01@@Z DB 02H
	DB	'H'
	DB	00H
xdata	ENDS
;	COMDAT xdata
xdata	SEGMENT
$cppxdata$??0exception@std@@QEAA@AEBV01@@Z DB 060H
	DD	imagerel $ip2state$??0exception@std@@QEAA@AEBV01@@Z
xdata	ENDS
;	COMDAT xdata
xdata	SEGMENT
$unwind$??0exception@std@@QEAA@AEBV01@@Z DD 020619H
	DD	030023206H
	DD	imagerel __CxxFrameHandler4
	DD	imagerel $cppxdata$??0exception@std@@QEAA@AEBV01@@Z
xdata	ENDS
;	COMDAT xdata
xdata	SEGMENT
$ip2state$??1exception@std@@UEAA@XZ DB 02H
	DB	'$'
	DB	00H
xdata	ENDS
;	COMDAT xdata
xdata	SEGMENT
$cppxdata$??1exception@std@@UEAA@XZ DB 060H
	DD	imagerel $ip2state$??1exception@std@@UEAA@XZ
xdata	ENDS
;	COMDAT xdata
xdata	SEGMENT
$unwind$??1exception@std@@UEAA@XZ DD 010419H
	DD	04204H
	DD	imagerel __CxxFrameHandler4
	DD	imagerel $cppxdata$??1exception@std@@UEAA@XZ
xdata	ENDS
;	COMDAT xdata
xdata	SEGMENT
$ip2state$??_Gexception@std@@UEAAPEAXI@Z DB 02H
	DB	':'
	DB	02H
xdata	ENDS
;	COMDAT xdata
xdata	SEGMENT
$stateUnwindMap$??_Gexception@std@@UEAAPEAXI@Z DB 02H
	DB	0eH
	DD	imagerel __imp___std_terminate
xdata	ENDS
;	COMDAT xdata
xdata	SEGMENT
$cppxdata$??_Gexception@std@@UEAAPEAXI@Z DB 068H
	DD	imagerel $stateUnwindMap$??_Gexception@std@@UEAAPEAXI@Z
	DD	imagerel $ip2state$??_Gexception@std@@UEAAPEAXI@Z
xdata	ENDS
;	COMDAT xdata
xdata	SEGMENT
$unwind$??_Gexception@std@@UEAAPEAXI@Z DD 040a19H
	DD	06340aH
	DD	07006320aH
	DD	imagerel __CxxFrameHandler4
	DD	imagerel $cppxdata$??_Gexception@std@@UEAAPEAXI@Z
xdata	ENDS
;	COMDAT xdata
xdata	SEGMENT
$ip2state$??_Gbad_alloc@std@@UEAAPEAXI@Z DB 02H
	DB	':'
	DB	02H
xdata	ENDS
;	COMDAT xdata
xdata	SEGMENT
$stateUnwindMap$??_Gbad_alloc@std@@UEAAPEAXI@Z DB 02H
	DB	0eH
	DD	imagerel __imp___std_terminate
xdata	ENDS
;	COMDAT xdata
xdata	SEGMENT
$cppxdata$??_Gbad_alloc@std@@UEAAPEAXI@Z DB 068H
	DD	imagerel $stateUnwindMap$??_Gbad_alloc@std@@UEAAPEAXI@Z
	DD	imagerel $ip2state$??_Gbad_alloc@std@@UEAAPEAXI@Z
xdata	ENDS
;	COMDAT xdata
xdata	SEGMENT
$unwind$??_Gbad_alloc@std@@UEAAPEAXI@Z DD 040a19H
	DD	06340aH
	DD	07006320aH
	DD	imagerel __CxxFrameHandler4
	DD	imagerel $cppxdata$??_Gbad_alloc@std@@UEAAPEAXI@Z
xdata	ENDS
;	COMDAT xdata
xdata	SEGMENT
$ip2state$??1bad_alloc@std@@UEAA@XZ DB 02H
	DB	'$'
	DB	02H
xdata	ENDS
;	COMDAT xdata
xdata	SEGMENT
$stateUnwindMap$??1bad_alloc@std@@UEAA@XZ DB 02H
	DB	0eH
	DD	imagerel __imp___std_terminate
xdata	ENDS
;	COMDAT xdata
xdata	SEGMENT
$cppxdata$??1bad_alloc@std@@UEAA@XZ DB 068H
	DD	imagerel $stateUnwindMap$??1bad_alloc@std@@UEAA@XZ
	DD	imagerel $ip2state$??1bad_alloc@std@@UEAA@XZ
xdata	ENDS
;	COMDAT xdata
xdata	SEGMENT
$unwind$??1bad_alloc@std@@UEAA@XZ DD 010419H
	DD	04204H
	DD	imagerel __CxxFrameHandler4
	DD	imagerel $cppxdata$??1bad_alloc@std@@UEAA@XZ
xdata	ENDS
;	COMDAT xdata
xdata	SEGMENT
$ip2state$??_Gbad_array_new_length@std@@UEAAPEAXI@Z DB 02H
	DB	':'
	DB	02H
xdata	ENDS
;	COMDAT xdata
xdata	SEGMENT
$stateUnwindMap$??_Gbad_array_new_length@std@@UEAAPEAXI@Z DB 02H
	DB	0eH
	DD	imagerel __imp___std_terminate
xdata	ENDS
;	COMDAT xdata
xdata	SEGMENT
$cppxdata$??_Gbad_array_new_length@std@@UEAAPEAXI@Z DB 068H
	DD	imagerel $stateUnwindMap$??_Gbad_array_new_length@std@@UEAAPEAXI@Z
	DD	imagerel $ip2state$??_Gbad_array_new_length@std@@UEAAPEAXI@Z
xdata	ENDS
;	COMDAT xdata
xdata	SEGMENT
$unwind$??_Gbad_array_new_length@std@@UEAAPEAXI@Z DD 040a19H
	DD	06340aH
	DD	07006320aH
	DD	imagerel __CxxFrameHandler4
	DD	imagerel $cppxdata$??_Gbad_array_new_length@std@@UEAAPEAXI@Z
xdata	ENDS
;	COMDAT xdata
xdata	SEGMENT
$ip2state$??1bad_array_new_length@std@@UEAA@XZ DB 02H
	DB	'$'
	DB	02H
xdata	ENDS
;	COMDAT xdata
xdata	SEGMENT
$stateUnwindMap$??1bad_array_new_length@std@@UEAA@XZ DB 02H
	DB	0eH
	DD	imagerel __imp___std_terminate
xdata	ENDS
;	COMDAT xdata
xdata	SEGMENT
$cppxdata$??1bad_array_new_length@std@@UEAA@XZ DB 068H
	DD	imagerel $stateUnwindMap$??1bad_array_new_length@std@@UEAA@XZ
	DD	imagerel $ip2state$??1bad_array_new_length@std@@UEAA@XZ
xdata	ENDS
;	COMDAT xdata
xdata	SEGMENT
$unwind$??1bad_array_new_length@std@@UEAA@XZ DD 010419H
	DD	04204H
	DD	imagerel __CxxFrameHandler4
	DD	imagerel $cppxdata$??1bad_array_new_length@std@@UEAA@XZ
xdata	ENDS
;	COMDAT xdata
xdata	SEGMENT
$unwind$?_Throw_bad_array_new_length@std@@YAXXZ DD 010401H
	DD	08204H
xdata	ENDS
;	COMDAT xdata
xdata	SEGMENT
$ip2state$??0bad_array_new_length@std@@QEAA@AEBV01@@Z DB 02H
	DB	'H'
	DB	02H
xdata	ENDS
;	COMDAT xdata
xdata	SEGMENT
$stateUnwindMap$??0bad_array_new_length@std@@QEAA@AEBV01@@Z DB 02H
	DB	0eH
	DD	imagerel __imp___std_terminate
xdata	ENDS
;	COMDAT xdata
xdata	SEGMENT
$cppxdata$??0bad_array_new_length@std@@QEAA@AEBV01@@Z DB 068H
	DD	imagerel $stateUnwindMap$??0bad_array_new_length@std@@QEAA@AEBV01@@Z
	DD	imagerel $ip2state$??0bad_array_new_length@std@@QEAA@AEBV01@@Z
xdata	ENDS
;	COMDAT xdata
xdata	SEGMENT
$unwind$??0bad_array_new_length@std@@QEAA@AEBV01@@Z DD 020619H
	DD	030023206H
	DD	imagerel __CxxFrameHandler4
	DD	imagerel $cppxdata$??0bad_array_new_length@std@@QEAA@AEBV01@@Z
xdata	ENDS
;	COMDAT xdata
xdata	SEGMENT
$ip2state$??0bad_alloc@std@@QEAA@AEBV01@@Z DB 02H
	DB	'H'
	DB	02H
xdata	ENDS
;	COMDAT xdata
xdata	SEGMENT
$stateUnwindMap$??0bad_alloc@std@@QEAA@AEBV01@@Z DB 02H
	DB	0eH
	DD	imagerel __imp___std_terminate
xdata	ENDS
;	COMDAT xdata
xdata	SEGMENT
$cppxdata$??0bad_alloc@std@@QEAA@AEBV01@@Z DB 068H
	DD	imagerel $stateUnwindMap$??0bad_alloc@std@@QEAA@AEBV01@@Z
	DD	imagerel $ip2state$??0bad_alloc@std@@QEAA@AEBV01@@Z
xdata	ENDS
;	COMDAT xdata
xdata	SEGMENT
$unwind$??0bad_alloc@std@@QEAA@AEBV01@@Z DD 020619H
	DD	030023206H
	DD	imagerel __CxxFrameHandler4
	DD	imagerel $cppxdata$??0bad_alloc@std@@QEAA@AEBV01@@Z
xdata	ENDS
;	COMDAT xdata
xdata	SEGMENT
$unwind$?_Adjust_manually_vector_aligned@std@@YAXAEAPEAXAEA_K@Z DD 010401H
	DD	04204H
xdata	ENDS
;	COMDAT xdata
xdata	SEGMENT
$unwind$?to_string@std@@YA?AV?$basic_string@DU?$char_traits@D@std@@V?$allocator@D@2@@1@H@Z DD 021519H
	DD	030029206H
	DD	imagerel __GSHandlerCheck
	DD	040H
xdata	ENDS
;	COMDAT xdata
xdata	SEGMENT
$ip2state$??1Mat@cv@@QEAA@XZ DB 02H
	DB	'H'
	DB	00H
xdata	ENDS
;	COMDAT xdata
xdata	SEGMENT
$cppxdata$??1Mat@cv@@QEAA@XZ DB 060H
	DD	imagerel $ip2state$??1Mat@cv@@QEAA@XZ
xdata	ENDS
;	COMDAT xdata
xdata	SEGMENT
$unwind$??1Mat@cv@@QEAA@XZ DD 020619H
	DD	030023206H
	DD	imagerel __CxxFrameHandler4
	DD	imagerel $cppxdata$??1Mat@cv@@QEAA@XZ
xdata	ENDS
;	COMDAT xdata
xdata	SEGMENT
$unwind$?release@Mat@cv@@QEAAXXZ DD 020601H
	DD	030023206H
xdata	ENDS
;	COMDAT xdata
xdata	SEGMENT
$unwind$??6anyimpl@cvflann@@YAAEAV?$basic_ostream@DU?$char_traits@D@std@@@std@@AEAV23@AEBUempty_any@01@@Z DD 020601H
	DD	030023206H
xdata	ENDS
;	COMDAT xdata
xdata	SEGMENT
$unwind$??_Gbase_any_policy@anyimpl@cvflann@@UEAAPEAXI@Z DD 020601H
	DD	030023206H
xdata	ENDS
;	COMDAT xdata
xdata	SEGMENT
$unwind$vc_binary_blob_labelling DD 0b2919H
	DD	09b3417H
	DD	0900117H
	DD	0e00ef010H
	DD	0c00ad00cH
	DD	060077008H
	DD	05006H
	DD	imagerel __GSHandlerCheck
	DD	0470H
xdata	ENDS
;	COMDAT xdata
xdata	SEGMENT
$unwind$vc_trab_fase1 DD 0a1801H
	DD	0a6418H
	DD	095418H
	DD	083418H
	DD	0f0143218H
	DD	07010e012H
xdata	ENDS
;	COMDAT xdata
xdata	SEGMENT
$ip2state$main DB 'P'
	DB	0a1H, 02H
	DB	00H
	DB	0baH
	DB	04H
	DB	'('
	DB	06H
	DB	'x'
	DB	08H
	DB	'('
	DB	04H
	DB	0e9H, 02H
	DB	0cH
	DB	'.'
	DB	04H
	DB	'p'
	DB	08H
	DB	'=', 03H
	DB	0eH
	DB	0e1H, 019H
	DB	010H
	DB	0fdH, 02H
	DB	012H
	DB	0e0H
	DB	014H
	DB	'4'
	DB	016H
	DB	'N'
	DB	018H
	DB	'=', 02H
	DB	016H
	DB	0dH, 08H
	DB	0eH
	DB	0e9H, 02H
	DB	'$'
	DB	')', 02H
	DB	0eH
	DB	'%', 07H
	DB	'&'
	DB	'R'
	DB	'('
	DB	'i', 02H
	DB	'&'
	DB	'!', 04H
	DB	0eH
	DB	0a5H, 03H
	DB	','
	DB	'*'
	DB	0eH
	DB	0b2H
	DB	01aH
	DB	0eH
	DB	01cH
	DB	0eH
	DB	01eH
	DB	0eH
	DB	' '
	DB	0eH
	DB	'"'
	DB	01cH
	DB	'*'
	DB	0eH
	DB	'"'
	DB	01cH
	DB	0eH
	DB	'f'
	DB	'.'
	DB	01cH
	DB	0eH
	DB	'p'
	DB	'"'
	DB	'('
	DB	0eH
	DB	'Z'
	DB	08H
	DB	0e0H
	DB	02H
	DB	'p'
	DB	'0'
	DB	'~'
	DB	00H
xdata	ENDS
;	COMDAT xdata
xdata	SEGMENT
$stateUnwindMap$main DB 030H
	DB	0aH
	DD	imagerel __imp_??1VideoCapture@cv@@UEAA@XZ
	DB	0c1H
	DB	010H
	DB	03aH
	DD	imagerel ??1?$basic_string@DU?$char_traits@D@std@@V?$allocator@D@2@@std@@QEAA@XZ
	DB	041H
	DB	010H
	DB	03aH
	DD	imagerel ??1?$basic_string@DU?$char_traits@D@std@@V?$allocator@D@2@@std@@QEAA@XZ
	DB	0a1H
	DB	05H
	DB	076H
	DD	imagerel __imp___std_terminate
	DB	0d0H
	DB	0a2H
	DD	imagerel ??1?$basic_string@DU?$char_traits@D@std@@V?$allocator@D@2@@std@@QEAA@XZ
	DB	021H
	DB	06H
	DB	0daH
	DD	imagerel ??1Mat@cv@@QEAA@XZ
	DB	0c1H
	DB	0eH
	DB	03aH
	DD	imagerel ??1?$basic_string@DU?$char_traits@D@std@@V?$allocator@D@2@@std@@QEAA@XZ
	DB	0a1H
	DB	06H
	DB	03aH
	DD	imagerel ??1?$basic_string@DU?$char_traits@D@std@@V?$allocator@D@2@@std@@QEAA@XZ
	DB	041H
	DB	02H
	DB	03aH
	DD	imagerel ??1?$basic_string@DU?$char_traits@D@std@@V?$allocator@D@2@@std@@QEAA@XZ
	DB	01H
	DB	05H
	DB	03aH
	DD	imagerel ??1?$basic_string@DU?$char_traits@D@std@@V?$allocator@D@2@@std@@QEAA@XZ
	DB	021H
	DB	0bH
	DB	03aH
	DD	imagerel ??1?$basic_string@DU?$char_traits@D@std@@V?$allocator@D@2@@std@@QEAA@XZ
	DB	0c1H
	DB	02H
	DB	076H
	DD	imagerel __imp___std_terminate
	DB	0d6H
	DD	imagerel __imp___std_terminate
	DB	06dH
	DB	02H
	DD	imagerel __imp___std_terminate
	DB	03dH
	DB	03H
	DD	imagerel __imp___std_terminate
	DB	0dH
	DB	04H
	DD	imagerel __imp___std_terminate
	DB	065H
	DB	04H
	DD	imagerel ??1?$basic_string@DU?$char_traits@D@std@@V?$allocator@D@2@@std@@QEAA@XZ
	DB	041H
	DB	03H
	DB	0e5H
	DB	04H
	DD	imagerel ??1?$basic_string@DU?$char_traits@D@std@@V?$allocator@D@2@@std@@QEAA@XZ
	DB	081H
	DB	04H
	DB	042H
	DD	imagerel ??1?$basic_string@DU?$char_traits@D@std@@V?$allocator@D@2@@std@@QEAA@XZ
	DB	0e0H
	DB	076H
	DD	imagerel __imp___std_terminate
	DB	015H
	DB	06H
	DD	imagerel ??1?$basic_string@DU?$char_traits@D@std@@V?$allocator@D@2@@std@@QEAA@XZ
	DB	021H
	DB	07H
	DB	095H
	DB	06H
	DD	imagerel ??1?$basic_string@DU?$char_traits@D@std@@V?$allocator@D@2@@std@@QEAA@XZ
	DB	0a1H
	DB	07H
	DB	03dH
	DB	09H
	DD	imagerel __imp___std_terminate
xdata	ENDS
;	COMDAT xdata
xdata	SEGMENT
$cppxdata$main DB 028H
	DD	imagerel $stateUnwindMap$main
	DD	imagerel $ip2state$main
xdata	ENDS
;	COMDAT xdata
xdata	SEGMENT
$unwind$main DD	0195619H
	DD	050b845H
	DD	051a83dH
	DD	0529838H
	DD	0538833H
	DD	054782eH
	DD	055682aH
	DD	0b47426H
	DD	0b36426H
	DD	0b23426H
	DD	0ac0126H
	DD	0e016f018H
	DD	0c012d014H
	DD	05010H
	DD	imagerel __GSHandlerCheck_EH4
	DD	imagerel $cppxdata$main
	DD	04faH
xdata	ENDS
;	COMDAT xdata
xdata	SEGMENT
$ip2state$?move@?$big_any_policy@V?$basic_string@DU?$char_traits@D@std@@V?$allocator@D@2@@std@@@anyimpl@cvflann@@UEAAXPEBQEAXPEAPEAX@Z DB 04H
	DB	0fcH
	DB	00H
	DB	'*'
	DB	02H
xdata	ENDS
;	COMDAT xdata
xdata	SEGMENT
$stateUnwindMap$?move@?$big_any_policy@V?$basic_string@DU?$char_traits@D@std@@V?$allocator@D@2@@std@@@anyimpl@cvflann@@UEAAXPEBQEAXPEAPEAX@Z DB 02H
	DB	0eH
	DD	imagerel __imp___std_terminate
xdata	ENDS
;	COMDAT xdata
xdata	SEGMENT
$cppxdata$?move@?$big_any_policy@V?$basic_string@DU?$char_traits@D@std@@V?$allocator@D@2@@std@@@anyimpl@cvflann@@UEAAXPEBQEAXPEAPEAX@Z DB 028H
	DD	imagerel $stateUnwindMap$?move@?$big_any_policy@V?$basic_string@DU?$char_traits@D@std@@V?$allocator@D@2@@std@@@anyimpl@cvflann@@UEAAXPEBQEAXPEAPEAX@Z
	DD	imagerel $ip2state$?move@?$big_any_policy@V?$basic_string@DU?$char_traits@D@std@@V?$allocator@D@2@@std@@@anyimpl@cvflann@@UEAAXPEBQEAXPEAPEAX@Z
xdata	ENDS
;	COMDAT xdata
xdata	SEGMENT
$unwind$?move@?$big_any_policy@V?$basic_string@DU?$char_traits@D@std@@V?$allocator@D@2@@std@@@anyimpl@cvflann@@UEAAXPEBQEAXPEAPEAX@Z DD 060f11H
	DD	09640fH
	DD	06340fH
	DD	0700b320fH
	DD	imagerel __CxxFrameHandler4
	DD	imagerel $cppxdata$?move@?$big_any_policy@V?$basic_string@DU?$char_traits@D@std@@V?$allocator@D@2@@std@@@anyimpl@cvflann@@UEAAXPEBQEAXPEAPEAX@Z
xdata	ENDS
;	COMDAT xdata
xdata	SEGMENT
$unwind$?dtor$0@?0??clone@?$big_any_policy@V?$basic_string@DU?$char_traits@D@std@@V?$allocator@D@2@@std@@@anyimpl@cvflann@@UEAAXPEBQEAXPEAPEAX@Z@4HA DD 020601H
	DD	050023206H
xdata	ENDS
;	COMDAT xdata
xdata	SEGMENT
$ip2state$?clone@?$big_any_policy@V?$basic_string@DU?$char_traits@D@std@@V?$allocator@D@2@@std@@@anyimpl@cvflann@@UEAAXPEBQEAXPEAPEAX@Z DB 04H
	DB	'*'
	DB	00H
	DB	' '
	DB	02H
xdata	ENDS
;	COMDAT xdata
xdata	SEGMENT
$stateUnwindMap$?clone@?$big_any_policy@V?$basic_string@DU?$char_traits@D@std@@V?$allocator@D@2@@std@@@anyimpl@cvflann@@UEAAXPEBQEAXPEAPEAX@Z DB 02H
	DB	0eH
	DD	imagerel ?dtor$0@?0??clone@?$big_any_policy@V?$basic_string@DU?$char_traits@D@std@@V?$allocator@D@2@@std@@@anyimpl@cvflann@@UEAAXPEBQEAXPEAPEAX@Z@4HA
xdata	ENDS
;	COMDAT xdata
xdata	SEGMENT
$cppxdata$?clone@?$big_any_policy@V?$basic_string@DU?$char_traits@D@std@@V?$allocator@D@2@@std@@@anyimpl@cvflann@@UEAAXPEBQEAXPEAPEAX@Z DB 028H
	DD	imagerel $stateUnwindMap$?clone@?$big_any_policy@V?$basic_string@DU?$char_traits@D@std@@V?$allocator@D@2@@std@@@anyimpl@cvflann@@UEAAXPEBQEAXPEAPEAX@Z
	DD	imagerel $ip2state$?clone@?$big_any_policy@V?$basic_string@DU?$char_traits@D@std@@V?$allocator@D@2@@std@@@anyimpl@cvflann@@UEAAXPEBQEAXPEAPEAX@Z
xdata	ENDS
;	COMDAT xdata
xdata	SEGMENT
$unwind$?clone@?$big_any_policy@V?$basic_string@DU?$char_traits@D@std@@V?$allocator@D@2@@std@@@anyimpl@cvflann@@UEAAXPEBQEAXPEAPEAX@Z DD 040a11H
	DD	06340aH
	DD	07006320aH
	DD	imagerel __CxxFrameHandler4
	DD	imagerel $cppxdata$?clone@?$big_any_policy@V?$basic_string@DU?$char_traits@D@std@@V?$allocator@D@2@@std@@@anyimpl@cvflann@@UEAAXPEBQEAXPEAPEAX@Z
xdata	ENDS
;	COMDAT xdata
xdata	SEGMENT
$unwind$?dtor$0@?0??copy_from_value@?$big_any_policy@V?$basic_string@DU?$char_traits@D@std@@V?$allocator@D@2@@std@@@anyimpl@cvflann@@UEAAXPEBXPEAPEAX@Z@4HA DD 020601H
	DD	050023206H
xdata	ENDS
;	COMDAT xdata
xdata	SEGMENT
$ip2state$?copy_from_value@?$big_any_policy@V?$basic_string@DU?$char_traits@D@std@@V?$allocator@D@2@@std@@@anyimpl@cvflann@@UEAAXPEBXPEAPEAX@Z DB 04H
	DB	'*'
	DB	00H
	DB	' '
	DB	02H
xdata	ENDS
;	COMDAT xdata
xdata	SEGMENT
$stateUnwindMap$?copy_from_value@?$big_any_policy@V?$basic_string@DU?$char_traits@D@std@@V?$allocator@D@2@@std@@@anyimpl@cvflann@@UEAAXPEBXPEAPEAX@Z DB 02H
	DB	0eH
	DD	imagerel ?dtor$0@?0??copy_from_value@?$big_any_policy@V?$basic_string@DU?$char_traits@D@std@@V?$allocator@D@2@@std@@@anyimpl@cvflann@@UEAAXPEBXPEAPEAX@Z@4HA
xdata	ENDS
;	COMDAT xdata
xdata	SEGMENT
$cppxdata$?copy_from_value@?$big_any_policy@V?$basic_string@DU?$char_traits@D@std@@V?$allocator@D@2@@std@@@anyimpl@cvflann@@UEAAXPEBXPEAPEAX@Z DB 028H
	DD	imagerel $stateUnwindMap$?copy_from_value@?$big_any_policy@V?$basic_string@DU?$char_traits@D@std@@V?$allocator@D@2@@std@@@anyimpl@cvflann@@UEAAXPEBXPEAPEAX@Z
	DD	imagerel $ip2state$?copy_from_value@?$big_any_policy@V?$basic_string@DU?$char_traits@D@std@@V?$allocator@D@2@@std@@@anyimpl@cvflann@@UEAAXPEBXPEAPEAX@Z
xdata	ENDS
;	COMDAT xdata
xdata	SEGMENT
$unwind$?copy_from_value@?$big_any_policy@V?$basic_string@DU?$char_traits@D@std@@V?$allocator@D@2@@std@@@anyimpl@cvflann@@UEAAXPEBXPEAPEAX@Z DD 040a11H
	DD	06340aH
	DD	07006320aH
	DD	imagerel __CxxFrameHandler4
	DD	imagerel $cppxdata$?copy_from_value@?$big_any_policy@V?$basic_string@DU?$char_traits@D@std@@V?$allocator@D@2@@std@@@anyimpl@cvflann@@UEAAXPEBXPEAPEAX@Z
xdata	ENDS
;	COMDAT xdata
xdata	SEGMENT
$ip2state$?static_delete@?$big_any_policy@V?$basic_string@DU?$char_traits@D@std@@V?$allocator@D@2@@std@@@anyimpl@cvflann@@UEAAXPEAPEAX@Z DB 02H
	DB	0fcH
	DB	02H
xdata	ENDS
;	COMDAT xdata
xdata	SEGMENT
$stateUnwindMap$?static_delete@?$big_any_policy@V?$basic_string@DU?$char_traits@D@std@@V?$allocator@D@2@@std@@@anyimpl@cvflann@@UEAAXPEAPEAX@Z DB 02H
	DB	0eH
	DD	imagerel __imp___std_terminate
xdata	ENDS
;	COMDAT xdata
xdata	SEGMENT
$cppxdata$?static_delete@?$big_any_policy@V?$basic_string@DU?$char_traits@D@std@@V?$allocator@D@2@@std@@@anyimpl@cvflann@@UEAAXPEAPEAX@Z DB 028H
	DD	imagerel $stateUnwindMap$?static_delete@?$big_any_policy@V?$basic_string@DU?$char_traits@D@std@@V?$allocator@D@2@@std@@@anyimpl@cvflann@@UEAAXPEAPEAX@Z
	DD	imagerel $ip2state$?static_delete@?$big_any_policy@V?$basic_string@DU?$char_traits@D@std@@V?$allocator@D@2@@std@@@anyimpl@cvflann@@UEAAXPEAPEAX@Z
xdata	ENDS
;	COMDAT xdata
xdata	SEGMENT
$unwind$?static_delete@?$big_any_policy@V?$basic_string@DU?$char_traits@D@std@@V?$allocator@D@2@@std@@@anyimpl@cvflann@@UEAAXPEAPEAX@Z DD 040a11H
	DD	06340aH
	DD	07006320aH
	DD	imagerel __CxxFrameHandler4
	DD	imagerel $cppxdata$?static_delete@?$big_any_policy@V?$basic_string@DU?$char_traits@D@std@@V?$allocator@D@2@@std@@@anyimpl@cvflann@@UEAAXPEAPEAX@Z
xdata	ENDS
;	COMDAT xdata
xdata	SEGMENT
$unwind$?clone@?$big_any_policy@W4flann_algorithm_t@cvflann@@@anyimpl@cvflann@@UEAAXPEBQEAXPEAPEAX@Z DD 040a01H
	DD	06340aH
	DD	07006320aH
xdata	ENDS
;	COMDAT xdata
xdata	SEGMENT
$unwind$?copy_from_value@?$big_any_policy@W4flann_algorithm_t@cvflann@@@anyimpl@cvflann@@UEAAXPEBXPEAPEAX@Z DD 040a01H
	DD	06340aH
	DD	07006320aH
xdata	ENDS
;	COMDAT xdata
xdata	SEGMENT
$unwind$?static_delete@?$big_any_policy@W4flann_algorithm_t@cvflann@@@anyimpl@cvflann@@UEAAXPEAPEAX@Z DD 020601H
	DD	030023206H
xdata	ENDS
;	COMDAT xdata
xdata	SEGMENT
$unwind$?clone@?$big_any_policy@W4flann_centers_init_t@cvflann@@@anyimpl@cvflann@@UEAAXPEBQEAXPEAPEAX@Z DD 040a01H
	DD	06340aH
	DD	07006320aH
xdata	ENDS
;	COMDAT xdata
xdata	SEGMENT
$unwind$?copy_from_value@?$big_any_policy@W4flann_centers_init_t@cvflann@@@anyimpl@cvflann@@UEAAXPEBXPEAPEAX@Z DD 040a01H
	DD	06340aH
	DD	07006320aH
xdata	ENDS
;	COMDAT xdata
xdata	SEGMENT
$unwind$?static_delete@?$big_any_policy@W4flann_centers_init_t@cvflann@@@anyimpl@cvflann@@UEAAXPEAPEAX@Z DD 020601H
	DD	030023206H
xdata	ENDS
;	COMDAT xdata
xdata	SEGMENT
$chain$1$?append@?$basic_string@DU?$char_traits@D@std@@V?$allocator@D@2@@std@@QEAAAEAV12@QEBD@Z DD 021H
	DD	imagerel $LN18
	DD	imagerel $LN18+48
	DD	imagerel $unwind$?append@?$basic_string@DU?$char_traits@D@std@@V?$allocator@D@2@@std@@QEAAAEAV12@QEBD@Z
xdata	ENDS
;	COMDAT xdata
xdata	SEGMENT
$chain$0$?append@?$basic_string@DU?$char_traits@D@std@@V?$allocator@D@2@@std@@QEAAAEAV12@QEBD@Z DD 020521H
	DD	087405H
	DD	imagerel $LN18
	DD	imagerel $LN18+48
	DD	imagerel $unwind$?append@?$basic_string@DU?$char_traits@D@std@@V?$allocator@D@2@@std@@QEAAAEAV12@QEBD@Z
xdata	ENDS
;	COMDAT xdata
xdata	SEGMENT
$unwind$?append@?$basic_string@DU?$char_traits@D@std@@V?$allocator@D@2@@std@@QEAAAEAV12@QEBD@Z DD 040a01H
	DD	09340aH
	DD	06006520aH
xdata	ENDS
;	COMDAT xdata
xdata	SEGMENT
$chain$1$?append@?$basic_string@DU?$char_traits@D@std@@V?$allocator@D@2@@std@@QEAAAEAV12@AEBV12@@Z DD 021H
	DD	imagerel $LN20
	DD	imagerel $LN20+49
	DD	imagerel $unwind$?append@?$basic_string@DU?$char_traits@D@std@@V?$allocator@D@2@@std@@QEAAAEAV12@AEBV12@@Z
xdata	ENDS
;	COMDAT xdata
xdata	SEGMENT
$chain$0$?append@?$basic_string@DU?$char_traits@D@std@@V?$allocator@D@2@@std@@QEAAAEAV12@AEBV12@@Z DD 020521H
	DD	083405H
	DD	imagerel $LN20
	DD	imagerel $LN20+49
	DD	imagerel $unwind$?append@?$basic_string@DU?$char_traits@D@std@@V?$allocator@D@2@@std@@QEAAAEAV12@AEBV12@@Z
xdata	ENDS
;	COMDAT xdata
xdata	SEGMENT
$unwind$?append@?$basic_string@DU?$char_traits@D@std@@V?$allocator@D@2@@std@@QEAAAEAV12@AEBV12@@Z DD 040a01H
	DD	09640aH
	DD	07006520aH
xdata	ENDS
;	COMDAT xdata
xdata	SEGMENT
$unwind$??4?$basic_string@DU?$char_traits@D@std@@V?$allocator@D@2@@std@@QEAAAEAV01@AEBV01@@Z DD 020601H
	DD	030023206H
xdata	ENDS
;	COMDAT xdata
xdata	SEGMENT
$ip2state$??1?$basic_string@DU?$char_traits@D@std@@V?$allocator@D@2@@std@@QEAA@XZ DB 02H
	DB	0b2H
	DB	02H
xdata	ENDS
;	COMDAT xdata
xdata	SEGMENT
$stateUnwindMap$??1?$basic_string@DU?$char_traits@D@std@@V?$allocator@D@2@@std@@QEAA@XZ DB 02H
	DB	0eH
	DD	imagerel __imp___std_terminate
xdata	ENDS
;	COMDAT xdata
xdata	SEGMENT
$cppxdata$??1?$basic_string@DU?$char_traits@D@std@@V?$allocator@D@2@@std@@QEAA@XZ DB 068H
	DD	imagerel $stateUnwindMap$??1?$basic_string@DU?$char_traits@D@std@@V?$allocator@D@2@@std@@QEAA@XZ
	DD	imagerel $ip2state$??1?$basic_string@DU?$char_traits@D@std@@V?$allocator@D@2@@std@@QEAA@XZ
xdata	ENDS
;	COMDAT xdata
xdata	SEGMENT
$unwind$??1?$basic_string@DU?$char_traits@D@std@@V?$allocator@D@2@@std@@QEAA@XZ DD 020619H
	DD	030023206H
	DD	imagerel __CxxFrameHandler4
	DD	imagerel $cppxdata$??1?$basic_string@DU?$char_traits@D@std@@V?$allocator@D@2@@std@@QEAA@XZ
xdata	ENDS
;	COMDAT xdata
xdata	SEGMENT
$unwind$??0?$basic_string@DU?$char_traits@D@std@@V?$allocator@D@2@@std@@QEAA@QEBD@Z DD 020601H
	DD	030023206H
xdata	ENDS
;	COMDAT xdata
xdata	SEGMENT
$unwind$??0?$basic_string@DU?$char_traits@D@std@@V?$allocator@D@2@@std@@QEAA@AEBV01@@Z DD 062b01H
	DD	0a642bH
	DD	070043208H
	DD	030025003H
xdata	ENDS
;	COMDAT xdata
xdata	SEGMENT
$ip2state$??_G?$basic_string@DU?$char_traits@D@std@@V?$allocator@D@2@@std@@QEAAPEAXI@Z DB 02H
	DB	0f4H
	DB	02H
xdata	ENDS
;	COMDAT xdata
xdata	SEGMENT
$stateUnwindMap$??_G?$basic_string@DU?$char_traits@D@std@@V?$allocator@D@2@@std@@QEAAPEAXI@Z DB 02H
	DB	0eH
	DD	imagerel __imp___std_terminate
xdata	ENDS
;	COMDAT xdata
xdata	SEGMENT
$cppxdata$??_G?$basic_string@DU?$char_traits@D@std@@V?$allocator@D@2@@std@@QEAAPEAXI@Z DB 068H
	DD	imagerel $stateUnwindMap$??_G?$basic_string@DU?$char_traits@D@std@@V?$allocator@D@2@@std@@QEAAPEAXI@Z
	DD	imagerel $ip2state$??_G?$basic_string@DU?$char_traits@D@std@@V?$allocator@D@2@@std@@QEAAPEAXI@Z
xdata	ENDS
;	COMDAT xdata
xdata	SEGMENT
$unwind$??_G?$basic_string@DU?$char_traits@D@std@@V?$allocator@D@2@@std@@QEAAPEAXI@Z DD 040a19H
	DD	07340aH
	DD	07006320aH
	DD	imagerel __CxxFrameHandler4
	DD	imagerel $cppxdata$??_G?$basic_string@DU?$char_traits@D@std@@V?$allocator@D@2@@std@@QEAAPEAXI@Z
xdata	ENDS
;	COMDAT xdata
xdata	SEGMENT
$ip2state$??1sentry@?$basic_ostream@DU?$char_traits@D@std@@@std@@QEAA@XZ DB 04H
	DB	','
	DB	00H
	DB	'<'
	DB	02H
xdata	ENDS
;	COMDAT xdata
xdata	SEGMENT
$stateUnwindMap$??1sentry@?$basic_ostream@DU?$char_traits@D@std@@@std@@QEAA@XZ DB 02H
	DB	0eH
	DD	imagerel __imp___std_terminate
xdata	ENDS
;	COMDAT xdata
xdata	SEGMENT
$cppxdata$??1sentry@?$basic_ostream@DU?$char_traits@D@std@@@std@@QEAA@XZ DB 068H
	DD	imagerel $stateUnwindMap$??1sentry@?$basic_ostream@DU?$char_traits@D@std@@@std@@QEAA@XZ
	DD	imagerel $ip2state$??1sentry@?$basic_ostream@DU?$char_traits@D@std@@@std@@QEAA@XZ
xdata	ENDS
;	COMDAT xdata
xdata	SEGMENT
$unwind$??1sentry@?$basic_ostream@DU?$char_traits@D@std@@@std@@QEAA@XZ DD 020619H
	DD	030023206H
	DD	imagerel __CxxFrameHandler4
	DD	imagerel $cppxdata$??1sentry@?$basic_ostream@DU?$char_traits@D@std@@@std@@QEAA@XZ
xdata	ENDS
;	COMDAT xdata
xdata	SEGMENT
$ip2state$??0sentry@?$basic_ostream@DU?$char_traits@D@std@@@std@@QEAA@AEAV12@@Z DB 04H
	DB	'X'
	DB	00H
	DB	'H'
	DB	02H
xdata	ENDS
;	COMDAT xdata
xdata	SEGMENT
$stateUnwindMap$??0sentry@?$basic_ostream@DU?$char_traits@D@std@@@std@@QEAA@AEAV12@@Z DB 02H
	DB	0cH
	DD	imagerel ??1_Sentry_base@?$basic_ostream@DU?$char_traits@D@std@@@std@@QEAA@XZ
	DB	060H
xdata	ENDS
;	COMDAT xdata
xdata	SEGMENT
$cppxdata$??0sentry@?$basic_ostream@DU?$char_traits@D@std@@@std@@QEAA@AEAV12@@Z DB 028H
	DD	imagerel $stateUnwindMap$??0sentry@?$basic_ostream@DU?$char_traits@D@std@@@std@@QEAA@AEAV12@@Z
	DD	imagerel $ip2state$??0sentry@?$basic_ostream@DU?$char_traits@D@std@@@std@@QEAA@AEAV12@@Z
xdata	ENDS
;	COMDAT xdata
xdata	SEGMENT
$unwind$??0sentry@?$basic_ostream@DU?$char_traits@D@std@@@std@@QEAA@AEAV12@@Z DD 040f11H
	DD	07340fH
	DD	0700b320fH
	DD	imagerel __CxxFrameHandler4
	DD	imagerel $cppxdata$??0sentry@?$basic_ostream@DU?$char_traits@D@std@@@std@@QEAA@AEAV12@@Z
xdata	ENDS
;	COMDAT xdata
xdata	SEGMENT
$ip2state$?_Tidy_deallocate@?$basic_string@DU?$char_traits@D@std@@V?$allocator@D@2@@std@@AEAAXXZ DB 02H
	DB	0b2H
	DB	02H
xdata	ENDS
;	COMDAT xdata
xdata	SEGMENT
$stateUnwindMap$?_Tidy_deallocate@?$basic_string@DU?$char_traits@D@std@@V?$allocator@D@2@@std@@AEAAXXZ DB 02H
	DB	0eH
	DD	imagerel __imp___std_terminate
xdata	ENDS
;	COMDAT xdata
xdata	SEGMENT
$cppxdata$?_Tidy_deallocate@?$basic_string@DU?$char_traits@D@std@@V?$allocator@D@2@@std@@AEAAXXZ DB 068H
	DD	imagerel $stateUnwindMap$?_Tidy_deallocate@?$basic_string@DU?$char_traits@D@std@@V?$allocator@D@2@@std@@AEAAXXZ
	DD	imagerel $ip2state$?_Tidy_deallocate@?$basic_string@DU?$char_traits@D@std@@V?$allocator@D@2@@std@@AEAAXXZ
xdata	ENDS
;	COMDAT xdata
xdata	SEGMENT
$unwind$?_Tidy_deallocate@?$basic_string@DU?$char_traits@D@std@@V?$allocator@D@2@@std@@AEAAXXZ DD 020619H
	DD	030023206H
	DD	imagerel __CxxFrameHandler4
	DD	imagerel $cppxdata$?_Tidy_deallocate@?$basic_string@DU?$char_traits@D@std@@V?$allocator@D@2@@std@@AEAAXXZ
xdata	ENDS
;	COMDAT xdata
xdata	SEGMENT
$ip2state$?assign@?$basic_string@DU?$char_traits@D@std@@V?$allocator@D@2@@std@@QEAAAEAV12@QEBD_K@Z DB 06H
	DB	0b1H, 02H
	DB	00H
	DB	0aeH
	DB	02H
	DB	08aH
	DB	00H
xdata	ENDS
;	COMDAT xdata
xdata	SEGMENT
$stateUnwindMap$?assign@?$basic_string@DU?$char_traits@D@std@@V?$allocator@D@2@@std@@QEAAAEAV12@QEBD_K@Z DB 02H
	DB	0eH
	DD	imagerel __imp___std_terminate
xdata	ENDS
;	COMDAT xdata
xdata	SEGMENT
$cppxdata$?assign@?$basic_string@DU?$char_traits@D@std@@V?$allocator@D@2@@std@@QEAAAEAV12@QEBD_K@Z DB 028H
	DD	imagerel $stateUnwindMap$?assign@?$basic_string@DU?$char_traits@D@std@@V?$allocator@D@2@@std@@QEAAAEAV12@QEBD_K@Z
	DD	imagerel $ip2state$?assign@?$basic_string@DU?$char_traits@D@std@@V?$allocator@D@2@@std@@QEAAAEAV12@QEBD_K@Z
xdata	ENDS
;	COMDAT xdata
xdata	SEGMENT
$unwind$?assign@?$basic_string@DU?$char_traits@D@std@@V?$allocator@D@2@@std@@QEAAAEAV12@QEBD_K@Z DD 081011H
	DD	0d3410H
	DD	0f00c3210H
	DD	07008e00aH
	DD	050066007H
	DD	imagerel __CxxFrameHandler4
	DD	imagerel $cppxdata$?assign@?$basic_string@DU?$char_traits@D@std@@V?$allocator@D@2@@std@@QEAAAEAV12@QEBD_K@Z
xdata	ENDS
;	COMDAT xdata
xdata	SEGMENT
$unwind$??R<lambda_66f57f934f28d61049862f64df852ff0>@@QEBAXQEAD_KQEBD@Z DD 040a01H
	DD	06340aH
	DD	07006320aH
xdata	ENDS
;	COMDAT xdata
xdata	SEGMENT
$chain$1$?append@?$basic_string@DU?$char_traits@D@std@@V?$allocator@D@2@@std@@QEAAAEAV12@QEBD_K@Z DD 021H
	DD	imagerel $LN13
	DD	imagerel $LN13+35
	DD	imagerel $unwind$?append@?$basic_string@DU?$char_traits@D@std@@V?$allocator@D@2@@std@@QEAAAEAV12@QEBD_K@Z
xdata	ENDS
;	COMDAT xdata
xdata	SEGMENT
$chain$0$?append@?$basic_string@DU?$char_traits@D@std@@V?$allocator@D@2@@std@@QEAAAEAV12@QEBD_K@Z DD 020521H
	DD	083405H
	DD	imagerel $LN13
	DD	imagerel $LN13+35
	DD	imagerel $unwind$?append@?$basic_string@DU?$char_traits@D@std@@V?$allocator@D@2@@std@@QEAAAEAV12@QEBD_K@Z
xdata	ENDS
;	COMDAT xdata
xdata	SEGMENT
$unwind$?append@?$basic_string@DU?$char_traits@D@std@@V?$allocator@D@2@@std@@QEAAAEAV12@QEBD_K@Z DD 040a01H
	DD	09640aH
	DD	07006520aH
xdata	ENDS
;	COMDAT xdata
xdata	SEGMENT
$unwind$??R<lambda_65e615be2a453ca0576c979606f46740>@@QEBAXQEADQEBD_K12@Z DD 040a01H
	DD	06340aH
	DD	07006320aH
xdata	ENDS
;	COMDAT xdata
xdata	SEGMENT
$unwind$?_Construct_lv_contents@?$basic_string@DU?$char_traits@D@std@@V?$allocator@D@2@@std@@AEAAXAEBV12@@Z DD 085001H
	DD	065450H
	DD	08640fH
	DD	07340fH
	DD	0700b320fH
xdata	ENDS
;	COMDAT xdata
xdata	SEGMENT
$unwind$?allocate@?$allocator@D@std@@QEAAPEAD_K@Z DD 010401H
	DD	04204H
xdata	ENDS
;	COMDAT xdata
xdata	SEGMENT
$ip2state$?deallocate@?$allocator@D@std@@QEAAXQEAD_K@Z DB 02H
	DB	'r'
	DB	02H
xdata	ENDS
;	COMDAT xdata
xdata	SEGMENT
$stateUnwindMap$?deallocate@?$allocator@D@std@@QEAAXQEAD_K@Z DB 02H
	DB	0eH
	DD	imagerel __imp___std_terminate
xdata	ENDS
;	COMDAT xdata
xdata	SEGMENT
$cppxdata$?deallocate@?$allocator@D@std@@QEAAXQEAD_K@Z DB 028H
	DD	imagerel $stateUnwindMap$?deallocate@?$allocator@D@std@@QEAAXQEAD_K@Z
	DD	imagerel $ip2state$?deallocate@?$allocator@D@std@@QEAAXQEAD_K@Z
xdata	ENDS
;	COMDAT xdata
xdata	SEGMENT
$unwind$?deallocate@?$allocator@D@std@@QEAAXQEAD_K@Z DD 010411H
	DD	04204H
	DD	imagerel __CxxFrameHandler4
	DD	imagerel $cppxdata$?deallocate@?$allocator@D@std@@QEAAXQEAD_K@Z
xdata	ENDS
;	COMDAT xdata
xdata	SEGMENT
$unwind$?copy@?$_Narrow_char_traits@DH@std@@SAPEADQEADQEBD_K@Z DD 020601H
	DD	030023206H
xdata	ENDS
;	COMDAT xdata
xdata	SEGMENT
$ip2state$??1_Sentry_base@?$basic_ostream@DU?$char_traits@D@std@@@std@@QEAA@XZ DB 02H
	DB	'6'
	DB	00H
xdata	ENDS
;	COMDAT xdata
xdata	SEGMENT
$cppxdata$??1_Sentry_base@?$basic_ostream@DU?$char_traits@D@std@@@std@@QEAA@XZ DB 060H
	DD	imagerel $ip2state$??1_Sentry_base@?$basic_ostream@DU?$char_traits@D@std@@@std@@QEAA@XZ
xdata	ENDS
;	COMDAT xdata
xdata	SEGMENT
$unwind$??1_Sentry_base@?$basic_ostream@DU?$char_traits@D@std@@@std@@QEAA@XZ DD 010419H
	DD	04204H
	DD	imagerel __CxxFrameHandler4
	DD	imagerel $cppxdata$??1_Sentry_base@?$basic_ostream@DU?$char_traits@D@std@@@std@@QEAA@XZ
xdata	ENDS
;	COMDAT xdata
xdata	SEGMENT
$unwind$??0_Sentry_base@?$basic_ostream@DU?$char_traits@D@std@@@std@@QEAA@AEAV12@@Z DD 020601H
	DD	030023206H
xdata	ENDS
;	COMDAT xdata
xdata	SEGMENT
$unwind$?_Xran@?$_String_val@U?$_Simple_types@D@std@@@std@@SAXXZ DD 010401H
	DD	04204H
xdata	ENDS
;	COMDAT xdata
xdata	SEGMENT
$unwind$??$_Integral_to_string@DH@std@@YA?AV?$basic_string@DU?$char_traits@D@std@@V?$allocator@D@2@@0@H@Z DD 021519H
	DD	030029206H
	DD	imagerel __GSHandlerCheck
	DD	040H
xdata	ENDS
;	COMDAT xdata
xdata	SEGMENT
$unwind$?catch$4@?0???$?6U?$char_traits@D@std@@@std@@YAAEAV?$basic_ostream@DU?$char_traits@D@std@@@0@AEAV10@PEBD@Z@4HA DD 020a01H
	DD	05006320aH
xdata	ENDS
;	COMDAT xdata
xdata	SEGMENT
$ip2state$??$?6U?$char_traits@D@std@@@std@@YAAEAV?$basic_ostream@DU?$char_traits@D@std@@@0@AEAV10@PEBD@Z DB 0eH
	DB	0e2H
	DB	00H
	DB	'T'
	DB	02H
	DB	0b6H
	DB	06H
	DB	0d8H
	DB	04H
	DB	'L'
	DB	0aH
	DB	'('
	DB	0cH
	DB	'2'
	DB	00H
xdata	ENDS
;	COMDAT xdata
xdata	SEGMENT
$handlerMap$??$?6U?$char_traits@D@std@@@std@@YAAEAV?$basic_ostream@DU?$char_traits@D@std@@@0@AEAV10@PEBD@Z DB 02H
	DB	011H
	DB	080H
	DD	imagerel ?catch$4@?0???$?6U?$char_traits@D@std@@@std@@YAAEAV?$basic_ostream@DU?$char_traits@D@std@@@0@AEAV10@PEBD@Z@4HA
	DB	091H, 05H
xdata	ENDS
;	COMDAT xdata
xdata	SEGMENT
$tryMap$??$?6U?$char_traits@D@std@@@std@@YAAEAV?$basic_ostream@DU?$char_traits@D@std@@@0@AEAV10@PEBD@Z DB 02H
	DB	04H
	DB	04H
	DB	06H
	DD	imagerel $handlerMap$??$?6U?$char_traits@D@std@@@std@@YAAEAV?$basic_ostream@DU?$char_traits@D@std@@@0@AEAV10@PEBD@Z
xdata	ENDS
;	COMDAT xdata
xdata	SEGMENT
$stateUnwindMap$??$?6U?$char_traits@D@std@@@std@@YAAEAV?$basic_ostream@DU?$char_traits@D@std@@@0@AEAV10@PEBD@Z DB 0cH
	DB	0aH
	DD	imagerel ??1_Sentry_base@?$basic_ostream@DU?$char_traits@D@std@@@std@@QEAA@XZ
	DB	040H
	DB	03aH
	DD	imagerel ??1sentry@?$basic_ostream@DU?$char_traits@D@std@@@std@@QEAA@XZ
	DB	040H
	DB	030H
	DB	038H
	DB	07eH
	DD	imagerel __imp___std_terminate
	DB	02eH
	DD	imagerel __imp___std_terminate
xdata	ENDS
;	COMDAT xdata
xdata	SEGMENT
$cppxdata$??$?6U?$char_traits@D@std@@@std@@YAAEAV?$basic_ostream@DU?$char_traits@D@std@@@0@AEAV10@PEBD@Z DB 038H
	DD	imagerel $stateUnwindMap$??$?6U?$char_traits@D@std@@@std@@YAAEAV?$basic_ostream@DU?$char_traits@D@std@@@0@AEAV10@PEBD@Z
	DD	imagerel $tryMap$??$?6U?$char_traits@D@std@@@std@@YAAEAV?$basic_ostream@DU?$char_traits@D@std@@@0@AEAV10@PEBD@Z
	DD	imagerel $ip2state$??$?6U?$char_traits@D@std@@@std@@YAAEAV?$basic_ostream@DU?$char_traits@D@std@@@0@AEAV10@PEBD@Z
xdata	ENDS
;	COMDAT xdata
xdata	SEGMENT
$unwind$??$?6U?$char_traits@D@std@@@std@@YAAEAV?$basic_ostream@DU?$char_traits@D@std@@@0@AEAV10@PEBD@Z DD 081619H
	DD	0d3416H
	DD	0f0125216H
	DD	0c00ee010H
	DD	0600b700cH
	DD	imagerel __CxxFrameHandler4
	DD	imagerel $cppxdata$??$?6U?$char_traits@D@std@@@std@@YAAEAV?$basic_ostream@DU?$char_traits@D@std@@@0@AEAV10@PEBD@Z
xdata	ENDS
;	COMDAT xdata
xdata	SEGMENT
$unwind$??$?HDU?$char_traits@D@std@@V?$allocator@D@1@@std@@YA?AV?$basic_string@DU?$char_traits@D@std@@V?$allocator@D@2@@0@$$QEAV10@QEBD@Z DD 020601H
	DD	030025206H
xdata	ENDS
;	COMDAT xdata
xdata	SEGMENT
$chain$2$??$?HDU?$char_traits@D@std@@V?$allocator@D@1@@std@@YA?AV?$basic_string@DU?$char_traits@D@std@@V?$allocator@D@2@@0@$$QEAV10@0@Z DD 021H
	DD	imagerel $LN83
	DD	imagerel $LN83+71
	DD	imagerel $unwind$??$?HDU?$char_traits@D@std@@V?$allocator@D@1@@std@@YA?AV?$basic_string@DU?$char_traits@D@std@@V?$allocator@D@2@@0@$$QEAV10@0@Z
xdata	ENDS
;	COMDAT xdata
xdata	SEGMENT
$chain$1$??$?HDU?$char_traits@D@std@@V?$allocator@D@1@@std@@YA?AV?$basic_string@DU?$char_traits@D@std@@V?$allocator@D@2@@0@$$QEAV10@0@Z DD 040a21H
	DD	0df40aH
	DD	0cc405H
	DD	imagerel $LN83
	DD	imagerel $LN83+71
	DD	imagerel $unwind$??$?HDU?$char_traits@D@std@@V?$allocator@D@1@@std@@YA?AV?$basic_string@DU?$char_traits@D@std@@V?$allocator@D@2@@0@$$QEAV10@0@Z
xdata	ENDS
;	COMDAT xdata
xdata	SEGMENT
$unwind$??$?HDU?$char_traits@D@std@@V?$allocator@D@1@@std@@YA?AV?$basic_string@DU?$char_traits@D@std@@V?$allocator@D@2@@0@$$QEAV10@0@Z DD 081001H
	DD	0e3410H
	DD	0e00c5210H
	DD	07008d00aH
	DD	050066007H
xdata	ENDS
;	COMDAT xdata
xdata	SEGMENT
$ip2state$??$_Reallocate_for@V<lambda_66f57f934f28d61049862f64df852ff0>@@PEBD@?$basic_string@DU?$char_traits@D@std@@V?$allocator@D@2@@std@@AEAAAEAV01@_KV<lambda_66f57f934f28d61049862f64df852ff0>@@PEBD@Z DB 06H
	DB	019H, 02H
	DB	00H
	DB	0b0H
	DB	02H
	DB	08aH
	DB	00H
xdata	ENDS
;	COMDAT xdata
xdata	SEGMENT
$stateUnwindMap$??$_Reallocate_for@V<lambda_66f57f934f28d61049862f64df852ff0>@@PEBD@?$basic_string@DU?$char_traits@D@std@@V?$allocator@D@2@@std@@AEAAAEAV01@_KV<lambda_66f57f934f28d61049862f64df852ff0>@@PEBD@Z DB 02H
	DB	0eH
	DD	imagerel __imp___std_terminate
xdata	ENDS
;	COMDAT xdata
xdata	SEGMENT
$cppxdata$??$_Reallocate_for@V<lambda_66f57f934f28d61049862f64df852ff0>@@PEBD@?$basic_string@DU?$char_traits@D@std@@V?$allocator@D@2@@std@@AEAAAEAV01@_KV<lambda_66f57f934f28d61049862f64df852ff0>@@PEBD@Z DB 028H
	DD	imagerel $stateUnwindMap$??$_Reallocate_for@V<lambda_66f57f934f28d61049862f64df852ff0>@@PEBD@?$basic_string@DU?$char_traits@D@std@@V?$allocator@D@2@@std@@AEAAAEAV01@_KV<lambda_66f57f934f28d61049862f64df852ff0>@@PEBD@Z
	DD	imagerel $ip2state$??$_Reallocate_for@V<lambda_66f57f934f28d61049862f64df852ff0>@@PEBD@?$basic_string@DU?$char_traits@D@std@@V?$allocator@D@2@@std@@AEAAAEAV01@_KV<lambda_66f57f934f28d61049862f64df852ff0>@@PEBD@Z
xdata	ENDS
;	COMDAT xdata
xdata	SEGMENT
$unwind$??$_Reallocate_for@V<lambda_66f57f934f28d61049862f64df852ff0>@@PEBD@?$basic_string@DU?$char_traits@D@std@@V?$allocator@D@2@@std@@AEAAAEAV01@_KV<lambda_66f57f934f28d61049862f64df852ff0>@@PEBD@Z DD 081011H
	DD	0c3410H
	DD	0f00c3210H
	DD	07008e00aH
	DD	050066007H
	DD	imagerel __CxxFrameHandler4
	DD	imagerel $cppxdata$??$_Reallocate_for@V<lambda_66f57f934f28d61049862f64df852ff0>@@PEBD@?$basic_string@DU?$char_traits@D@std@@V?$allocator@D@2@@std@@AEAAAEAV01@_KV<lambda_66f57f934f28d61049862f64df852ff0>@@PEBD@Z
xdata	ENDS
;	COMDAT xdata
xdata	SEGMENT
$ip2state$??$_Reallocate_grow_by@V<lambda_65e615be2a453ca0576c979606f46740>@@PEBD_K@?$basic_string@DU?$char_traits@D@std@@V?$allocator@D@2@@std@@AEAAAEAV01@_KV<lambda_65e615be2a453ca0576c979606f46740>@@PEBD_K@Z DB 06H
	DB	'U', 02H
	DB	00H
	DB	0e4H
	DB	02H
	DB	'f'
	DB	00H
xdata	ENDS
;	COMDAT xdata
xdata	SEGMENT
$stateUnwindMap$??$_Reallocate_grow_by@V<lambda_65e615be2a453ca0576c979606f46740>@@PEBD_K@?$basic_string@DU?$char_traits@D@std@@V?$allocator@D@2@@std@@AEAAAEAV01@_KV<lambda_65e615be2a453ca0576c979606f46740>@@PEBD_K@Z DB 02H
	DB	0eH
	DD	imagerel __imp___std_terminate
xdata	ENDS
;	COMDAT xdata
xdata	SEGMENT
$cppxdata$??$_Reallocate_grow_by@V<lambda_65e615be2a453ca0576c979606f46740>@@PEBD_K@?$basic_string@DU?$char_traits@D@std@@V?$allocator@D@2@@std@@AEAAAEAV01@_KV<lambda_65e615be2a453ca0576c979606f46740>@@PEBD_K@Z DB 028H
	DD	imagerel $stateUnwindMap$??$_Reallocate_grow_by@V<lambda_65e615be2a453ca0576c979606f46740>@@PEBD_K@?$basic_string@DU?$char_traits@D@std@@V?$allocator@D@2@@std@@AEAAAEAV01@_KV<lambda_65e615be2a453ca0576c979606f46740>@@PEBD_K@Z
	DD	imagerel $ip2state$??$_Reallocate_grow_by@V<lambda_65e615be2a453ca0576c979606f46740>@@PEBD_K@?$basic_string@DU?$char_traits@D@std@@V?$allocator@D@2@@std@@AEAAAEAV01@_KV<lambda_65e615be2a453ca0576c979606f46740>@@PEBD_K@Z
xdata	ENDS
;	COMDAT xdata
xdata	SEGMENT
$unwind$??$_Reallocate_grow_by@V<lambda_65e615be2a453ca0576c979606f46740>@@PEBD_K@?$basic_string@DU?$char_traits@D@std@@V?$allocator@D@2@@std@@AEAAAEAV01@_KV<lambda_65e615be2a453ca0576c979606f46740>@@PEBD_K@Z DD 0a1411H
	DD	0e3414H
	DD	0f0103214H
	DD	0d00ce00eH
	DD	07008c00aH
	DD	050066007H
	DD	imagerel __CxxFrameHandler4
	DD	imagerel $cppxdata$??$_Reallocate_grow_by@V<lambda_65e615be2a453ca0576c979606f46740>@@PEBD_K@?$basic_string@DU?$char_traits@D@std@@V?$allocator@D@2@@std@@AEAAAEAV01@_KV<lambda_65e615be2a453ca0576c979606f46740>@@PEBD_K@Z
xdata	ENDS
;	COMDAT xdata
xdata	SEGMENT
$unwind$??$_Allocate@$0BA@U_Default_allocate_traits@std@@$0A@@std@@YAPEAX_K@Z DD 010401H
	DD	04204H
xdata	ENDS
;	COMDAT xdata
xdata	SEGMENT
$ip2state$??$_Deallocate@$0BA@$0A@@std@@YAXPEAX_K@Z DB 02H
	DB	'\'
	DB	00H
xdata	ENDS
;	COMDAT xdata
xdata	SEGMENT
$cppxdata$??$_Deallocate@$0BA@$0A@@std@@YAXPEAX_K@Z DB 060H
	DD	imagerel $ip2state$??$_Deallocate@$0BA@$0A@@std@@YAXPEAX_K@Z
xdata	ENDS
;	COMDAT xdata
xdata	SEGMENT
$unwind$??$_Deallocate@$0BA@$0A@@std@@YAXPEAX_K@Z DD 010419H
	DD	04204H
	DD	imagerel __CxxFrameHandler4
	DD	imagerel $cppxdata$??$_Deallocate@$0BA@$0A@@std@@YAXPEAX_K@Z
xdata	ENDS
;	COMDAT xdata
xdata	SEGMENT
$unwind$?clone@?$big_any_policy@Uempty_any@anyimpl@cvflann@@@anyimpl@cvflann@@UEAAXPEBQEAXPEAPEAX@Z DD 020601H
	DD	030023206H
xdata	ENDS
;	COMDAT xdata
xdata	SEGMENT
$unwind$?copy_from_value@?$big_any_policy@Uempty_any@anyimpl@cvflann@@@anyimpl@cvflann@@UEAAXPEBXPEAPEAX@Z DD 020601H
	DD	030023206H
xdata	ENDS
;	COMDAT xdata
xdata	SEGMENT
$unwind$?static_delete@?$big_any_policy@Uempty_any@anyimpl@cvflann@@@anyimpl@cvflann@@UEAAXPEAPEAX@Z DD 020601H
	DD	030023206H
xdata	ENDS
;	COMDAT xdata
xdata	SEGMENT
$unwind$?_Xlen@?$basic_string@DU?$char_traits@D@std@@V?$allocator@D@2@@std@@CAXXZ DD 010401H
	DD	04204H
xdata	ENDS
;	COMDAT xdata
xdata	SEGMENT
$chain$2$?insert@?$basic_string@DU?$char_traits@D@std@@V?$allocator@D@2@@std@@QEAAAEAV12@_KAEBV12@@Z DD 021H
	DD	imagerel $LN29
	DD	imagerel $LN29+59
	DD	imagerel $unwind$?insert@?$basic_string@DU?$char_traits@D@std@@V?$allocator@D@2@@std@@QEAAAEAV12@_KAEBV12@@Z
xdata	ENDS
;	COMDAT xdata
xdata	SEGMENT
$chain$1$?insert@?$basic_string@DU?$char_traits@D@std@@V?$allocator@D@2@@std@@QEAAAEAV12@_KAEBV12@@Z DD 041521H
	DD	09f415H
	DD	086405H
	DD	imagerel $LN29
	DD	imagerel $LN29+59
	DD	imagerel $unwind$?insert@?$basic_string@DU?$char_traits@D@std@@V?$allocator@D@2@@std@@QEAAAEAV12@_KAEBV12@@Z
xdata	ENDS
;	COMDAT xdata
xdata	SEGMENT
$unwind$?insert@?$basic_string@DU?$char_traits@D@std@@V?$allocator@D@2@@std@@QEAAAEAV12@_KAEBV12@@Z DD 061001H
	DD	0b7410H
	DD	0a3410H
	DD	0e00c5210H
xdata	ENDS
;	COMDAT xdata
xdata	SEGMENT
$chain$2$?insert@?$basic_string@DU?$char_traits@D@std@@V?$allocator@D@2@@std@@QEAAAEAV12@_KQEBD0@Z DD 021H
	DD	imagerel $LN22
	DD	imagerel $LN22+48
	DD	imagerel $unwind$?insert@?$basic_string@DU?$char_traits@D@std@@V?$allocator@D@2@@std@@QEAAAEAV12@_KQEBD0@Z
xdata	ENDS
;	COMDAT xdata
xdata	SEGMENT
$chain$1$?insert@?$basic_string@DU?$char_traits@D@std@@V?$allocator@D@2@@std@@QEAAAEAV12@_KQEBD0@Z DD 041521H
	DD	096415H
	DD	083405H
	DD	imagerel $LN22
	DD	imagerel $LN22+48
	DD	imagerel $unwind$?insert@?$basic_string@DU?$char_traits@D@std@@V?$allocator@D@2@@std@@QEAAAEAV12@_KQEBD0@Z
xdata	ENDS
;	COMDAT xdata
xdata	SEGMENT
$unwind$?insert@?$basic_string@DU?$char_traits@D@std@@V?$allocator@D@2@@std@@QEAAAEAV12@_KQEBD0@Z DD 061001H
	DD	0be410H
	DD	0a7410H
	DD	0f00c5210H
xdata	ENDS
;	COMDAT xdata
xdata	SEGMENT
$unwind$??R<lambda_f3a66ab6a0570788f31503db83886f49>@@QEBAXQEADQEBD_K212@Z DD 081401H
	DD	086414H
	DD	075414H
	DD	063414H
	DD	070103214H
xdata	ENDS
;	COMDAT xdata
xdata	SEGMENT
$unwind$??$?0PEAD$0A@@?$basic_string@DU?$char_traits@D@std@@V?$allocator@D@2@@std@@QEAA@PEAD0AEBV?$allocator@D@1@@Z DD 020601H
	DD	030023206H
xdata	ENDS
;	COMDAT xdata
xdata	SEGMENT
$unwind$??$_Allocate_manually_vector_aligned@U_Default_allocate_traits@std@@@std@@YAPEAX_K@Z DD 010401H
	DD	04204H
xdata	ENDS
;	COMDAT xdata
xdata	SEGMENT
$ip2state$??$_Reallocate_grow_by@V<lambda_f3a66ab6a0570788f31503db83886f49>@@_KPEBD_K@?$basic_string@DU?$char_traits@D@std@@V?$allocator@D@2@@std@@AEAAAEAV01@_KV<lambda_f3a66ab6a0570788f31503db83886f49>@@_KPEBD2@Z DB 06H
	DB	'e', 02H
	DB	00H
	DB	0d0H
	DB	02H
	DB	'f'
	DB	00H
xdata	ENDS
;	COMDAT xdata
xdata	SEGMENT
$stateUnwindMap$??$_Reallocate_grow_by@V<lambda_f3a66ab6a0570788f31503db83886f49>@@_KPEBD_K@?$basic_string@DU?$char_traits@D@std@@V?$allocator@D@2@@std@@AEAAAEAV01@_KV<lambda_f3a66ab6a0570788f31503db83886f49>@@_KPEBD2@Z DB 02H
	DB	0eH
	DD	imagerel __imp___std_terminate
xdata	ENDS
;	COMDAT xdata
xdata	SEGMENT
$cppxdata$??$_Reallocate_grow_by@V<lambda_f3a66ab6a0570788f31503db83886f49>@@_KPEBD_K@?$basic_string@DU?$char_traits@D@std@@V?$allocator@D@2@@std@@AEAAAEAV01@_KV<lambda_f3a66ab6a0570788f31503db83886f49>@@_KPEBD2@Z DB 028H
	DD	imagerel $stateUnwindMap$??$_Reallocate_grow_by@V<lambda_f3a66ab6a0570788f31503db83886f49>@@_KPEBD_K@?$basic_string@DU?$char_traits@D@std@@V?$allocator@D@2@@std@@AEAAAEAV01@_KV<lambda_f3a66ab6a0570788f31503db83886f49>@@_KPEBD2@Z
	DD	imagerel $ip2state$??$_Reallocate_grow_by@V<lambda_f3a66ab6a0570788f31503db83886f49>@@_KPEBD_K@?$basic_string@DU?$char_traits@D@std@@V?$allocator@D@2@@std@@AEAAAEAV01@_KV<lambda_f3a66ab6a0570788f31503db83886f49>@@_KPEBD2@Z
xdata	ENDS
;	COMDAT xdata
xdata	SEGMENT
$unwind$??$_Reallocate_grow_by@V<lambda_f3a66ab6a0570788f31503db83886f49>@@_KPEBD_K@?$basic_string@DU?$char_traits@D@std@@V?$allocator@D@2@@std@@AEAAAEAV01@_KV<lambda_f3a66ab6a0570788f31503db83886f49>@@_KPEBD2@Z DD 0a1611H
	DD	0d5416H
	DD	0c3416H
	DD	0f0123216H
	DD	0c00ee010H
	DD	0600b700cH
	DD	imagerel __CxxFrameHandler4
	DD	imagerel $cppxdata$??$_Reallocate_grow_by@V<lambda_f3a66ab6a0570788f31503db83886f49>@@_KPEBD_K@?$basic_string@DU?$char_traits@D@std@@V?$allocator@D@2@@std@@AEAAAEAV01@_KV<lambda_f3a66ab6a0570788f31503db83886f49>@@_KPEBD2@Z
xdata	ENDS
;	COMDAT xdata
xdata	SEGMENT
$unwind$??_G?$big_any_policy@Uempty_any@anyimpl@cvflann@@@anyimpl@cvflann@@UEAAPEAXI@Z DD 020601H
	DD	030023206H
xdata	ENDS
;	COMDAT xdata
xdata	SEGMENT
$unwind$??_G?$small_any_policy@PEBD@anyimpl@cvflann@@UEAAPEAXI@Z DD 020601H
	DD	030023206H
xdata	ENDS
;	COMDAT xdata
xdata	SEGMENT
$unwind$??_G?$small_any_policy@H@anyimpl@cvflann@@UEAAPEAXI@Z DD 020601H
	DD	030023206H
xdata	ENDS
;	COMDAT xdata
xdata	SEGMENT
$unwind$??_G?$small_any_policy@M@anyimpl@cvflann@@UEAAPEAXI@Z DD 020601H
	DD	030023206H
xdata	ENDS
;	COMDAT xdata
xdata	SEGMENT
$unwind$??_G?$small_any_policy@_N@anyimpl@cvflann@@UEAAPEAXI@Z DD 020601H
	DD	030023206H
xdata	ENDS
;	COMDAT xdata
xdata	SEGMENT
$unwind$??_G?$big_any_policy@W4flann_algorithm_t@cvflann@@@anyimpl@cvflann@@UEAAPEAXI@Z DD 020601H
	DD	030023206H
xdata	ENDS
;	COMDAT xdata
xdata	SEGMENT
$unwind$??_G?$big_any_policy@W4flann_centers_init_t@cvflann@@@anyimpl@cvflann@@UEAAPEAXI@Z DD 020601H
	DD	030023206H
xdata	ENDS
;	COMDAT xdata
xdata	SEGMENT
$unwind$??_G?$small_any_policy@I@anyimpl@cvflann@@UEAAPEAXI@Z DD 020601H
	DD	030023206H
xdata	ENDS
;	COMDAT xdata
xdata	SEGMENT
$unwind$??_G?$big_any_policy@V?$basic_string@DU?$char_traits@D@std@@V?$allocator@D@2@@std@@@anyimpl@cvflann@@UEAAPEAXI@Z DD 020601H
	DD	030023206H
xdata	ENDS
;	COMDAT CRT$XCU
CRT$XCU	SEGMENT
??policy$initializer$@?$SinglePolicy@PEBD@anyimpl@cvflann@@0P6AXXZEA@@3P6AXXZEA DQ FLAT:??__F?policy@?$SinglePolicy@PEBD@anyimpl@cvflann@@0U?$small_any_policy@PEBD@23@A@@YAXXZ ; ??policy$initializer$@?$SinglePolicy@PEBD@anyimpl@cvflann@@0P6AXXZEA@@3P6AXXZEA
CRT$XCU	ENDS
;	COMDAT CRT$XCU
CRT$XCU	SEGMENT
??policy$initializer$@?$SinglePolicy@H@anyimpl@cvflann@@0P6AXXZEA@@3P6AXXZEA DQ FLAT:??__F?policy@?$SinglePolicy@H@anyimpl@cvflann@@0U?$small_any_policy@H@23@A@@YAXXZ ; ??policy$initializer$@?$SinglePolicy@H@anyimpl@cvflann@@0P6AXXZEA@@3P6AXXZEA
CRT$XCU	ENDS
;	COMDAT CRT$XCU
CRT$XCU	SEGMENT
??policy$initializer$@?$SinglePolicy@M@anyimpl@cvflann@@0P6AXXZEA@@3P6AXXZEA DQ FLAT:??__F?policy@?$SinglePolicy@M@anyimpl@cvflann@@0U?$small_any_policy@M@23@A@@YAXXZ ; ??policy$initializer$@?$SinglePolicy@M@anyimpl@cvflann@@0P6AXXZEA@@3P6AXXZEA
CRT$XCU	ENDS
;	COMDAT CRT$XCU
CRT$XCU	SEGMENT
??policy$initializer$@?$SinglePolicy@_N@anyimpl@cvflann@@0P6AXXZEA@@3P6AXXZEA DQ FLAT:??__F?policy@?$SinglePolicy@_N@anyimpl@cvflann@@0U?$small_any_policy@_N@23@A@@YAXXZ ; ??policy$initializer$@?$SinglePolicy@_N@anyimpl@cvflann@@0P6AXXZEA@@3P6AXXZEA
CRT$XCU	ENDS
;	COMDAT CRT$XCU
CRT$XCU	SEGMENT
??policy$initializer$@?$SinglePolicy@W4flann_algorithm_t@cvflann@@@anyimpl@cvflann@@0P6AXXZEA@@3P6AXXZEA DQ FLAT:??__F?policy@?$SinglePolicy@W4flann_algorithm_t@cvflann@@@anyimpl@cvflann@@0U?$big_any_policy@W4flann_algorithm_t@cvflann@@@23@A@@YAXXZ ; ??policy$initializer$@?$SinglePolicy@W4flann_algorithm_t@cvflann@@@anyimpl@cvflann@@0P6AXXZEA@@3P6AXXZEA
CRT$XCU	ENDS
;	COMDAT CRT$XCU
CRT$XCU	SEGMENT
??policy$initializer$@?$SinglePolicy@W4flann_centers_init_t@cvflann@@@anyimpl@cvflann@@0P6AXXZEA@@3P6AXXZEA DQ FLAT:??__F?policy@?$SinglePolicy@W4flann_centers_init_t@cvflann@@@anyimpl@cvflann@@0U?$big_any_policy@W4flann_centers_init_t@cvflann@@@23@A@@YAXXZ ; ??policy$initializer$@?$SinglePolicy@W4flann_centers_init_t@cvflann@@@anyimpl@cvflann@@0P6AXXZEA@@3P6AXXZEA
CRT$XCU	ENDS
;	COMDAT CRT$XCU
CRT$XCU	SEGMENT
??policy$initializer$@?$SinglePolicy@I@anyimpl@cvflann@@0P6AXXZEA@@3P6AXXZEA DQ FLAT:??__F?policy@?$SinglePolicy@I@anyimpl@cvflann@@0U?$small_any_policy@I@23@A@@YAXXZ ; ??policy$initializer$@?$SinglePolicy@I@anyimpl@cvflann@@0P6AXXZEA@@3P6AXXZEA
CRT$XCU	ENDS
;	COMDAT CRT$XCU
CRT$XCU	SEGMENT
??policy$initializer$@?$SinglePolicy@V?$basic_string@DU?$char_traits@D@std@@V?$allocator@D@2@@std@@@anyimpl@cvflann@@0P6AXXZEA@@3P6AXXZEA DQ FLAT:??__F?policy@?$SinglePolicy@V?$basic_string@DU?$char_traits@D@std@@V?$allocator@D@2@@std@@@anyimpl@cvflann@@0U?$big_any_policy@V?$basic_string@DU?$char_traits@D@std@@V?$allocator@D@2@@std@@@23@A@@YAXXZ ; ??policy$initializer$@?$SinglePolicy@V?$basic_string@DU?$char_traits@D@std@@V?$allocator@D@2@@std@@@anyimpl@cvflann@@0P6AXXZEA@@3P6AXXZEA
CRT$XCU	ENDS
; Function compile flags: /Ogtpy
; File C:\Program Files (x86)\Microsoft Visual Studio\2019\Community\VC\Tools\MSVC\14.25.28610\include\vcruntime_new.h
;	COMDAT ??2@YAPEAX_KPEAX@Z
_TEXT	SEGMENT
_Size$dead$ = 8
_Where$ = 16
??2@YAPEAX_KPEAX@Z PROC					; operator new, COMDAT

; 170  :         (void)_Size;
; 171  :         return _Where;

	mov	rax, rdx

; 172  :     }

	ret	0
??2@YAPEAX_KPEAX@Z ENDP					; operator new
_TEXT	ENDS
; Function compile flags: /Ogtpy
; File C:\Program Files (x86)\Windows Kits\10\Include\10.0.18362.0\ucrt\corecrt_stdio_config.h
;	COMDAT __local_stdio_printf_options
_TEXT	SEGMENT
__local_stdio_printf_options PROC			; COMDAT

; 87   :         static unsigned __int64 _OptionsStorage;
; 88   :         return &_OptionsStorage;

	lea	rax, OFFSET FLAT:?_OptionsStorage@?1??__local_stdio_printf_options@@9@4_KA ; `__local_stdio_printf_options'::`2'::_OptionsStorage

; 89   :     }

	ret	0
__local_stdio_printf_options ENDP
_TEXT	ENDS
; Function compile flags: /Ogtpy
; File C:\Program Files (x86)\Windows Kits\10\Include\10.0.18362.0\ucrt\stdio.h
;	COMDAT _vfprintf_l
_TEXT	SEGMENT
_Stream$ = 64
_Format$ = 72
_Locale$dead$ = 80
_ArgList$ = 88
_vfprintf_l PROC					; COMDAT

; 642  :     {

$LN4:
	mov	QWORD PTR [rsp+8], rbx
	mov	QWORD PTR [rsp+16], rsi
	push	rdi
	sub	rsp, 48					; 00000030H
	mov	rbx, r9
	mov	rdi, rdx
	mov	rsi, rcx

; 643  :         return __stdio_common_vfprintf(_CRT_INTERNAL_LOCAL_PRINTF_OPTIONS, _Stream, _Format, _Locale, _ArgList);

	call	__local_stdio_printf_options
	xor	r9d, r9d
	mov	QWORD PTR [rsp+32], rbx
	mov	r8, rdi
	mov	rdx, rsi
	mov	rcx, QWORD PTR [rax]
	call	QWORD PTR __imp___stdio_common_vfprintf

; 644  :     }

	mov	rbx, QWORD PTR [rsp+64]
	mov	rsi, QWORD PTR [rsp+72]
	add	rsp, 48					; 00000030H
	pop	rdi
	ret	0
_vfprintf_l ENDP
_TEXT	ENDS
; Function compile flags: /Ogtpy
; File C:\Program Files (x86)\Windows Kits\10\Include\10.0.18362.0\ucrt\stdio.h
;	COMDAT printf
_TEXT	SEGMENT
_Format$ = 80
printf	PROC						; COMDAT

; 954  :     {

$LN6:
	mov	QWORD PTR [rsp+8], rcx
	mov	QWORD PTR [rsp+16], rdx
	mov	QWORD PTR [rsp+24], r8
	mov	QWORD PTR [rsp+32], r9
	push	rbx
	push	rsi
	push	rdi
	sub	rsp, 48					; 00000030H
	mov	rdi, rcx

; 955  :         int _Result;
; 956  :         va_list _ArgList;
; 957  :         __crt_va_start(_ArgList, _Format);

	lea	rsi, QWORD PTR _Format$[rsp+8]

; 958  :         _Result = _vfprintf_l(stdout, _Format, NULL, _ArgList);

	mov	ecx, 1
	call	QWORD PTR __imp___acrt_iob_func
	mov	rbx, rax

; 643  :         return __stdio_common_vfprintf(_CRT_INTERNAL_LOCAL_PRINTF_OPTIONS, _Stream, _Format, _Locale, _ArgList);

	call	__local_stdio_printf_options
	xor	r9d, r9d
	mov	QWORD PTR [rsp+32], rsi
	mov	r8, rdi
	mov	rdx, rbx
	mov	rcx, QWORD PTR [rax]
	call	QWORD PTR __imp___stdio_common_vfprintf

; 959  :         __crt_va_end(_ArgList);
; 960  :         return _Result;
; 961  :     }

	add	rsp, 48					; 00000030H
	pop	rdi
	pop	rsi
	pop	rbx
	ret	0
printf	ENDP
_TEXT	ENDS
; Function compile flags: /Ogtpy
; File C:\Program Files (x86)\Microsoft Visual Studio\2019\Community\VC\Tools\MSVC\14.25.28610\include\vcruntime_exception.h
;	COMDAT ??0exception@std@@QEAA@QEBDH@Z
_TEXT	SEGMENT
this$ = 8
_Message$ = 16
__formal$ = 24
??0exception@std@@QEAA@QEBDH@Z PROC			; std::exception::exception, COMDAT

; 66   :     {

	lea	rax, OFFSET FLAT:??_7exception@std@@6B@
	mov	QWORD PTR [rcx], rax

; 67   :         _Data._What = _Message;
; 68   :     }

	mov	rax, rcx
	mov	QWORD PTR [rcx+16], 0
	mov	QWORD PTR [rcx+8], rdx
	ret	0
??0exception@std@@QEAA@QEBDH@Z ENDP			; std::exception::exception
_TEXT	ENDS
; Function compile flags: /Ogtpy
; File C:\Program Files (x86)\Microsoft Visual Studio\2019\Community\VC\Tools\MSVC\14.25.28610\include\vcruntime_exception.h
;	COMDAT ??0exception@std@@QEAA@AEBV01@@Z
_TEXT	SEGMENT
this$ = 48
_Other$ = 56
??0exception@std@@QEAA@AEBV01@@Z PROC			; std::exception::exception, COMDAT

; 72   :     {

$LN5:
	push	rbx
	sub	rsp, 32					; 00000020H
	mov	rax, rdx
	mov	rbx, rcx
	lea	rcx, OFFSET FLAT:??_7exception@std@@6B@
	mov	QWORD PTR [rbx], rcx

; 71   :         : _Data()

	lea	rdx, QWORD PTR [rbx+8]
	xorps	xmm0, xmm0
	movups	XMMWORD PTR [rdx], xmm0

; 73   :         __std_exception_copy(&_Other._Data, &_Data);

	lea	rcx, QWORD PTR [rax+8]
	call	QWORD PTR __imp___std_exception_copy

; 74   :     }

	mov	rax, rbx
	add	rsp, 32					; 00000020H
	pop	rbx
	ret	0
??0exception@std@@QEAA@AEBV01@@Z ENDP			; std::exception::exception
_TEXT	ENDS
; Function compile flags: /Ogtpy
; File C:\Program Files (x86)\Microsoft Visual Studio\2019\Community\VC\Tools\MSVC\14.25.28610\include\vcruntime_exception.h
;	COMDAT ??1exception@std@@UEAA@XZ
_TEXT	SEGMENT
this$ = 48
??1exception@std@@UEAA@XZ PROC				; std::exception::~exception, COMDAT

; 89   :     {

$LN5:
	sub	rsp, 40					; 00000028H
	lea	rax, OFFSET FLAT:??_7exception@std@@6B@
	mov	QWORD PTR [rcx], rax

; 90   :         __std_exception_destroy(&_Data);

	add	rcx, 8
	call	QWORD PTR __imp___std_exception_destroy
	npad	1

; 91   :     }

	add	rsp, 40					; 00000028H
	ret	0
??1exception@std@@UEAA@XZ ENDP				; std::exception::~exception
_TEXT	ENDS
; Function compile flags: /Ogtpy
; File C:\Program Files (x86)\Microsoft Visual Studio\2019\Community\VC\Tools\MSVC\14.25.28610\include\vcruntime_exception.h
;	COMDAT ?what@exception@std@@UEBAPEBDXZ
_TEXT	SEGMENT
this$ = 8
?what@exception@std@@UEBAPEBDXZ PROC			; std::exception::what, COMDAT

; 95   :         return _Data._What ? _Data._What : "Unknown exception";

	mov	rdx, QWORD PTR [rcx+8]
	lea	rax, OFFSET FLAT:??_C@_0BC@EOODALEL@Unknown?5exception@
	test	rdx, rdx
	cmovne	rax, rdx

; 96   :     }

	ret	0
?what@exception@std@@UEBAPEBDXZ ENDP			; std::exception::what
_TEXT	ENDS
; Function compile flags: /Ogtpy
; File C:\Program Files (x86)\Microsoft Visual Studio\2019\Community\VC\Tools\MSVC\14.25.28610\include\vcruntime_exception.h
;	COMDAT ??_Gexception@std@@UEAAPEAXI@Z
_TEXT	SEGMENT
this$ = 48
__flags$ = 56
??_Gexception@std@@UEAAPEAXI@Z PROC			; std::exception::`scalar deleting destructor', COMDAT
$LN10:
	mov	QWORD PTR [rsp+8], rbx
	push	rdi
	sub	rsp, 32					; 00000020H
	mov	ebx, edx
	mov	rdi, rcx

; 89   :     {

	lea	rax, OFFSET FLAT:??_7exception@std@@6B@
	mov	QWORD PTR [rcx], rax

; 90   :         __std_exception_destroy(&_Data);

	add	rcx, 8
	call	QWORD PTR __imp___std_exception_destroy
	npad	1
	test	bl, 1
	je	SHORT $LN7@scalar
	mov	edx, 24
	mov	rcx, rdi
	call	??3@YAXPEAX_K@Z				; operator delete
$LN7@scalar:
	mov	rax, rdi
	mov	rbx, QWORD PTR [rsp+48]
	add	rsp, 32					; 00000020H
	pop	rdi
	ret	0
??_Gexception@std@@UEAAPEAXI@Z ENDP			; std::exception::`scalar deleting destructor'
_TEXT	ENDS
; Function compile flags: /Ogtpy
; File C:\Program Files (x86)\Microsoft Visual Studio\2019\Community\VC\Tools\MSVC\14.25.28610\include\vcruntime_exception.h
;	COMDAT ??0bad_alloc@std@@AEAA@QEBD@Z
_TEXT	SEGMENT
this$ = 8
_Message$ = 16
??0bad_alloc@std@@AEAA@QEBD@Z PROC			; std::bad_alloc::bad_alloc, COMDAT

; 130  :     {

	lea	rax, OFFSET FLAT:??_7bad_alloc@std@@6B@

; 65   :         : _Data()

	mov	QWORD PTR [rcx+16], 0

; 130  :     {

	mov	QWORD PTR [rcx], rax

; 131  :     }

	mov	rax, rcx

; 67   :         _Data._What = _Message;

	mov	QWORD PTR [rcx+8], rdx

; 131  :     }

	ret	0
??0bad_alloc@std@@AEAA@QEBD@Z ENDP			; std::bad_alloc::bad_alloc
_TEXT	ENDS
; Function compile flags: /Ogtpy
; File C:\Program Files (x86)\Microsoft Visual Studio\2019\Community\VC\Tools\MSVC\14.25.28610\include\vcruntime_exception.h
;	COMDAT ??_Gbad_alloc@std@@UEAAPEAXI@Z
_TEXT	SEGMENT
this$ = 48
__flags$ = 56
??_Gbad_alloc@std@@UEAAPEAXI@Z PROC			; std::bad_alloc::`scalar deleting destructor', COMDAT
$LN13:
	mov	QWORD PTR [rsp+8], rbx
	push	rdi
	sub	rsp, 32					; 00000020H
	mov	ebx, edx
	mov	rdi, rcx

; 89   :     {

	lea	rax, OFFSET FLAT:??_7exception@std@@6B@
	mov	QWORD PTR [rcx], rax

; 90   :         __std_exception_destroy(&_Data);

	add	rcx, 8
	call	QWORD PTR __imp___std_exception_destroy
	npad	1
	test	bl, 1
	je	SHORT $LN10@scalar
	mov	edx, 24
	mov	rcx, rdi
	call	??3@YAXPEAX_K@Z				; operator delete
$LN10@scalar:
	mov	rax, rdi
	mov	rbx, QWORD PTR [rsp+48]
	add	rsp, 32					; 00000020H
	pop	rdi
	ret	0
??_Gbad_alloc@std@@UEAAPEAXI@Z ENDP			; std::bad_alloc::`scalar deleting destructor'
_TEXT	ENDS
; Function compile flags: /Ogtpy
; File C:\Program Files (x86)\Microsoft Visual Studio\2019\Community\VC\Tools\MSVC\14.25.28610\include\vcruntime_exception.h
;	COMDAT ??1bad_alloc@std@@UEAA@XZ
_TEXT	SEGMENT
this$ = 48
??1bad_alloc@std@@UEAA@XZ PROC				; std::bad_alloc::~bad_alloc, COMDAT
$LN8:
	sub	rsp, 40					; 00000028H

; 89   :     {

	lea	rax, OFFSET FLAT:??_7exception@std@@6B@
	mov	QWORD PTR [rcx], rax

; 90   :         __std_exception_destroy(&_Data);

	add	rcx, 8
	call	QWORD PTR __imp___std_exception_destroy
	npad	1
	add	rsp, 40					; 00000028H
	ret	0
??1bad_alloc@std@@UEAA@XZ ENDP				; std::bad_alloc::~bad_alloc
_TEXT	ENDS
; Function compile flags: /Ogtpy
; File C:\Program Files (x86)\Microsoft Visual Studio\2019\Community\VC\Tools\MSVC\14.25.28610\include\vcruntime_exception.h
;	COMDAT ??0bad_array_new_length@std@@QEAA@XZ
_TEXT	SEGMENT
this$ = 8
??0bad_array_new_length@std@@QEAA@XZ PROC		; std::bad_array_new_length::bad_array_new_length, COMDAT

; 67   :         _Data._What = _Message;

	lea	rax, OFFSET FLAT:??_C@_0BF@KINCDENJ@bad?5array?5new?5length@
	mov	QWORD PTR [rcx+16], 0
	mov	QWORD PTR [rcx+8], rax

; 141  :     {

	lea	rax, OFFSET FLAT:??_7bad_array_new_length@std@@6B@
	mov	QWORD PTR [rcx], rax

; 142  :     }

	mov	rax, rcx
	ret	0
??0bad_array_new_length@std@@QEAA@XZ ENDP		; std::bad_array_new_length::bad_array_new_length
_TEXT	ENDS
; Function compile flags: /Ogtpy
; File C:\Program Files (x86)\Microsoft Visual Studio\2019\Community\VC\Tools\MSVC\14.25.28610\include\vcruntime_exception.h
;	COMDAT ??_Gbad_array_new_length@std@@UEAAPEAXI@Z
_TEXT	SEGMENT
this$ = 48
__flags$ = 56
??_Gbad_array_new_length@std@@UEAAPEAXI@Z PROC		; std::bad_array_new_length::`scalar deleting destructor', COMDAT
$LN16:
	mov	QWORD PTR [rsp+8], rbx
	push	rdi
	sub	rsp, 32					; 00000020H
	mov	ebx, edx
	mov	rdi, rcx

; 89   :     {

	lea	rax, OFFSET FLAT:??_7exception@std@@6B@
	mov	QWORD PTR [rcx], rax

; 90   :         __std_exception_destroy(&_Data);

	add	rcx, 8
	call	QWORD PTR __imp___std_exception_destroy
	npad	1
	test	bl, 1
	je	SHORT $LN13@scalar
	mov	edx, 24
	mov	rcx, rdi
	call	??3@YAXPEAX_K@Z				; operator delete
$LN13@scalar:
	mov	rax, rdi
	mov	rbx, QWORD PTR [rsp+48]
	add	rsp, 32					; 00000020H
	pop	rdi
	ret	0
??_Gbad_array_new_length@std@@UEAAPEAXI@Z ENDP		; std::bad_array_new_length::`scalar deleting destructor'
_TEXT	ENDS
; Function compile flags: /Ogtpy
; File C:\Program Files (x86)\Microsoft Visual Studio\2019\Community\VC\Tools\MSVC\14.25.28610\include\vcruntime_exception.h
;	COMDAT ??1bad_array_new_length@std@@UEAA@XZ
_TEXT	SEGMENT
this$ = 48
??1bad_array_new_length@std@@UEAA@XZ PROC		; std::bad_array_new_length::~bad_array_new_length, COMDAT
$LN11:
	sub	rsp, 40					; 00000028H

; 89   :     {

	lea	rax, OFFSET FLAT:??_7exception@std@@6B@
	mov	QWORD PTR [rcx], rax

; 90   :         __std_exception_destroy(&_Data);

	add	rcx, 8
	call	QWORD PTR __imp___std_exception_destroy
	npad	1
	add	rsp, 40					; 00000028H
	ret	0
??1bad_array_new_length@std@@UEAA@XZ ENDP		; std::bad_array_new_length::~bad_array_new_length
_TEXT	ENDS
; Function compile flags: /Ogtpy
; File C:\Program Files (x86)\Microsoft Visual Studio\2019\Community\VC\Tools\MSVC\14.25.28610\include\exception
;	COMDAT ?_Throw_bad_array_new_length@std@@YAXXZ
_TEXT	SEGMENT
$T1 = 32
?_Throw_bad_array_new_length@std@@YAXXZ PROC		; std::_Throw_bad_array_new_length, COMDAT

; 322  : [[noreturn]] inline void _Throw_bad_array_new_length() {

$LN4:
	sub	rsp, 72					; 00000048H

; 323  :     _THROW(bad_array_new_length{});

	lea	rcx, QWORD PTR $T1[rsp]
	call	??0bad_array_new_length@std@@QEAA@XZ	; std::bad_array_new_length::bad_array_new_length
	lea	rdx, OFFSET FLAT:_TI3?AVbad_array_new_length@std@@
	lea	rcx, QWORD PTR $T1[rsp]
	call	_CxxThrowException
	int	3
$LN3@Throw_bad_:
?_Throw_bad_array_new_length@std@@YAXXZ ENDP		; std::_Throw_bad_array_new_length
_TEXT	ENDS
; Function compile flags: /Ogtpy
; File C:\Program Files (x86)\Microsoft Visual Studio\2019\Community\VC\Tools\MSVC\14.25.28610\include\vcruntime_exception.h
;	COMDAT ??0bad_array_new_length@std@@QEAA@AEBV01@@Z
_TEXT	SEGMENT
this$ = 48
__that$ = 56
??0bad_array_new_length@std@@QEAA@AEBV01@@Z PROC	; std::bad_array_new_length::bad_array_new_length, COMDAT
$LN11:
	push	rbx
	sub	rsp, 32					; 00000020H
	mov	rax, rdx
	mov	rbx, rcx

; 72   :     {

	lea	rcx, OFFSET FLAT:??_7exception@std@@6B@
	mov	QWORD PTR [rbx], rcx

; 71   :         : _Data()

	lea	rdx, QWORD PTR [rbx+8]
	xorps	xmm0, xmm0
	movups	XMMWORD PTR [rdx], xmm0

; 73   :         __std_exception_copy(&_Other._Data, &_Data);

	lea	rcx, QWORD PTR [rax+8]
	call	QWORD PTR __imp___std_exception_copy
	npad	1
	lea	rax, OFFSET FLAT:??_7bad_array_new_length@std@@6B@
	mov	QWORD PTR [rbx], rax
	mov	rax, rbx
	add	rsp, 32					; 00000020H
	pop	rbx
	ret	0
??0bad_array_new_length@std@@QEAA@AEBV01@@Z ENDP	; std::bad_array_new_length::bad_array_new_length
_TEXT	ENDS
; Function compile flags: /Ogtpy
; File C:\Program Files (x86)\Microsoft Visual Studio\2019\Community\VC\Tools\MSVC\14.25.28610\include\vcruntime_exception.h
;	COMDAT ??0bad_alloc@std@@QEAA@AEBV01@@Z
_TEXT	SEGMENT
this$ = 48
__that$ = 56
??0bad_alloc@std@@QEAA@AEBV01@@Z PROC			; std::bad_alloc::bad_alloc, COMDAT
$LN8:
	push	rbx
	sub	rsp, 32					; 00000020H
	mov	rax, rdx
	mov	rbx, rcx

; 72   :     {

	lea	rcx, OFFSET FLAT:??_7exception@std@@6B@
	mov	QWORD PTR [rbx], rcx

; 71   :         : _Data()

	lea	rdx, QWORD PTR [rbx+8]
	xorps	xmm0, xmm0
	movups	XMMWORD PTR [rdx], xmm0

; 73   :         __std_exception_copy(&_Other._Data, &_Data);

	lea	rcx, QWORD PTR [rax+8]
	call	QWORD PTR __imp___std_exception_copy
	npad	1
	lea	rax, OFFSET FLAT:??_7bad_alloc@std@@6B@
	mov	QWORD PTR [rbx], rax
	mov	rax, rbx
	add	rsp, 32					; 00000020H
	pop	rbx
	ret	0
??0bad_alloc@std@@QEAA@AEBV01@@Z ENDP			; std::bad_alloc::bad_alloc
_TEXT	ENDS
; Function compile flags: /Ogtpy
; File C:\Program Files (x86)\Microsoft Visual Studio\2019\Community\VC\Tools\MSVC\14.25.28610\include\limits
;	COMDAT ?max@?$numeric_limits@_J@std@@SA_JXZ
_TEXT	SEGMENT
?max@?$numeric_limits@_J@std@@SA_JXZ PROC		; std::numeric_limits<__int64>::max, COMDAT

; 649  :         return LLONG_MAX;

	mov	rax, 9223372036854775807		; 7fffffffffffffffH

; 650  :     }

	ret	0
?max@?$numeric_limits@_J@std@@SA_JXZ ENDP		; std::numeric_limits<__int64>::max
_TEXT	ENDS
; Function compile flags: /Ogtpy
; File C:\Program Files (x86)\Microsoft Visual Studio\2019\Community\VC\Tools\MSVC\14.25.28610\include\xmemory
;	COMDAT ?_Allocate@_Default_allocate_traits@std@@SAPEAX_K@Z
_TEXT	SEGMENT
_Bytes$ = 8
?_Allocate@_Default_allocate_traits@std@@SAPEAX_K@Z PROC ; std::_Default_allocate_traits::_Allocate, COMDAT

; 51   :         return ::operator new(_Bytes);

	jmp	??2@YAPEAX_K@Z				; operator new
?_Allocate@_Default_allocate_traits@std@@SAPEAX_K@Z ENDP ; std::_Default_allocate_traits::_Allocate
_TEXT	ENDS
; Function compile flags: /Ogtpy
; File C:\Program Files (x86)\Microsoft Visual Studio\2019\Community\VC\Tools\MSVC\14.25.28610\include\xmemory
;	COMDAT ?_Adjust_manually_vector_aligned@std@@YAXAEAPEAXAEA_K@Z
_TEXT	SEGMENT
_Ptr$ = 48
_Bytes$ = 56
?_Adjust_manually_vector_aligned@std@@YAXAEAPEAXAEA_K@Z PROC ; std::_Adjust_manually_vector_aligned, COMDAT

; 106  : inline void _Adjust_manually_vector_aligned(void*& _Ptr, size_t& _Bytes) {

$LN13:
	sub	rsp, 40					; 00000028H

; 107  :     // adjust parameters from _Allocate_manually_vector_aligned to pass to operator delete
; 108  :     _Bytes += _Non_user_size;

	add	QWORD PTR [rdx], 39			; 00000027H

; 109  : 
; 110  :     const uintptr_t* const _Ptr_user = reinterpret_cast<uintptr_t*>(_Ptr);
; 111  :     const uintptr_t _Ptr_container   = _Ptr_user[-1];

	mov	rax, QWORD PTR [rcx]
	mov	rdx, QWORD PTR [rax-8]

; 112  : 
; 113  :     // If the following asserts, it likely means that we are performing
; 114  :     // an aligned delete on memory coming from an unaligned allocation.
; 115  :     _STL_ASSERT(_Ptr_user[-2] == _Big_allocation_sentinel, "invalid argument");
; 116  : 
; 117  :     // Extra paranoia on aligned allocation/deallocation; ensure _Ptr_container is
; 118  :     // in range [_Min_back_shift, _Non_user_size]
; 119  : #ifdef _DEBUG
; 120  :     constexpr uintptr_t _Min_back_shift = 2 * sizeof(void*);
; 121  : #else // ^^^ _DEBUG ^^^ // vvv !_DEBUG vvv
; 122  :     constexpr uintptr_t _Min_back_shift = sizeof(void*);
; 123  : #endif // _DEBUG
; 124  :     const uintptr_t _Back_shift = reinterpret_cast<uintptr_t>(_Ptr) - _Ptr_container;

	sub	rax, rdx

; 125  :     _STL_VERIFY(_Back_shift >= _Min_back_shift && _Back_shift <= _Non_user_size, "invalid argument");

	add	rax, -8
	cmp	rax, 31
	ja	SHORT $LN7@Adjust_man

; 126  :     _Ptr = reinterpret_cast<void*>(_Ptr_container);

	mov	QWORD PTR [rcx], rdx

; 127  : }

	add	rsp, 40					; 00000028H
	ret	0
$LN7@Adjust_man:

; 125  :     _STL_VERIFY(_Back_shift >= _Min_back_shift && _Back_shift <= _Non_user_size, "invalid argument");

	call	QWORD PTR __imp__invalid_parameter_noinfo_noreturn
	int	3
$LN11@Adjust_man:
?_Adjust_manually_vector_aligned@std@@YAXAEAPEAXAEA_K@Z ENDP ; std::_Adjust_manually_vector_aligned
_TEXT	ENDS
; Function compile flags: /Ogtpy
; File C:\Program Files (x86)\Microsoft Visual Studio\2019\Community\VC\Tools\MSVC\14.25.28610\include\xmemory
;	COMDAT ??$_Convert_size@_K@std@@YA_K_K@Z
_TEXT	SEGMENT
_Len$ = 8
??$_Convert_size@_K@std@@YA_K_K@Z PROC			; std::_Convert_size<unsigned __int64>, COMDAT

; 987  :     // convert size_t to size_t, unchanged
; 988  :     return _Len;

	mov	rax, rcx

; 989  : }

	ret	0
??$_Convert_size@_K@std@@YA_K_K@Z ENDP			; std::_Convert_size<unsigned __int64>
_TEXT	ENDS
; Function compile flags: /Ogtpy
; File C:\Program Files (x86)\Microsoft Visual Studio\2019\Community\VC\Tools\MSVC\14.25.28610\include\xmemory
;	COMDAT ?_Orphan_all@_Container_base0@std@@QEAAXXZ
_TEXT	SEGMENT
this$dead$ = 8
?_Orphan_all@_Container_base0@std@@QEAAXXZ PROC		; std::_Container_base0::_Orphan_all, COMDAT

; 1061 :     void _Orphan_all() noexcept {}

	ret	0
?_Orphan_all@_Container_base0@std@@QEAAXXZ ENDP		; std::_Container_base0::_Orphan_all
_TEXT	ENDS
; Function compile flags: /Ogtpy
; File C:\Program Files (x86)\Microsoft Visual Studio\2019\Community\VC\Tools\MSVC\14.25.28610\include\xmemory
;	COMDAT ?_Alloc_proxy@_Container_base0@std@@QEAAXAEBU_Fake_allocator@2@@Z
_TEXT	SEGMENT
this$dead$ = 8
__formal$dead$ = 16
?_Alloc_proxy@_Container_base0@std@@QEAAXAEBU_Fake_allocator@2@@Z PROC ; std::_Container_base0::_Alloc_proxy, COMDAT

; 1063 :     void _Alloc_proxy(const _Fake_allocator&) noexcept {}

	ret	0
?_Alloc_proxy@_Container_base0@std@@QEAAXAEBU_Fake_allocator@2@@Z ENDP ; std::_Container_base0::_Alloc_proxy
_TEXT	ENDS
; Function compile flags: /Ogtpy
; File C:\Program Files (x86)\Microsoft Visual Studio\2019\Community\VC\Tools\MSVC\14.25.28610\include\xmemory
;	COMDAT ??0_Fake_proxy_ptr_impl@std@@QEAA@AEBU_Fake_allocator@1@AEBU_Container_base0@1@@Z
_TEXT	SEGMENT
this$ = 8
__formal$dead$ = 16
__formal$dead$ = 24
??0_Fake_proxy_ptr_impl@std@@QEAA@AEBU_Fake_allocator@1@AEBU_Container_base0@1@@Z PROC ; std::_Fake_proxy_ptr_impl::_Fake_proxy_ptr_impl, COMDAT

; 1251 :     _Fake_proxy_ptr_impl(const _Fake_allocator&, const _Container_base0&) noexcept {}

	mov	rax, rcx
	ret	0
??0_Fake_proxy_ptr_impl@std@@QEAA@AEBU_Fake_allocator@1@AEBU_Container_base0@1@@Z ENDP ; std::_Fake_proxy_ptr_impl::_Fake_proxy_ptr_impl
_TEXT	ENDS
; Function compile flags: /Ogtpy
; File C:\Program Files (x86)\Microsoft Visual Studio\2019\Community\VC\Tools\MSVC\14.25.28610\include\xmemory
;	COMDAT ?_Release@_Fake_proxy_ptr_impl@std@@QEAAXXZ
_TEXT	SEGMENT
this$dead$ = 8
?_Release@_Fake_proxy_ptr_impl@std@@QEAAXXZ PROC	; std::_Fake_proxy_ptr_impl::_Release, COMDAT

; 1254 :     void _Release() noexcept {}

	ret	0
?_Release@_Fake_proxy_ptr_impl@std@@QEAAXXZ ENDP	; std::_Fake_proxy_ptr_impl::_Release
_TEXT	ENDS
; Function compile flags: /Ogtpy
; File C:\Program Files (x86)\Microsoft Visual Studio\2019\Community\VC\Tools\MSVC\14.25.28610\include\string
; File C:\Program Files (x86)\Microsoft Visual Studio\2019\Community\VC\Tools\MSVC\14.25.28610\include\xstring
; File C:\Program Files (x86)\Microsoft Visual Studio\2019\Community\VC\Tools\MSVC\14.25.28610\include\string
;	COMDAT ?to_string@std@@YA?AV?$basic_string@DU?$char_traits@D@std@@V?$allocator@D@2@@1@H@Z
_TEXT	SEGMENT
__$ReturnUdt$GSCopy$ = 32
_Buff$3 = 40
__$ArrayPad$ = 64
__$ReturnUdt$ = 96
_Val$ = 104
?to_string@std@@YA?AV?$basic_string@DU?$char_traits@D@std@@V?$allocator@D@2@@1@H@Z PROC ; std::to_string, COMDAT

; 504  : _NODISCARD inline string to_string(int _Val) { // convert int to string

$LN41:
	push	rbx
	sub	rsp, 80					; 00000050H
	mov	rax, QWORD PTR __security_cookie
	xor	rax, rsp
	mov	QWORD PTR __$ArrayPad$[rsp], rax
	mov	QWORD PTR __$ReturnUdt$GSCopy$[rsp], rcx
	mov	r8d, edx

; 493  :     if (_Val < 0) {

	lea	r9, QWORD PTR _Buff$3[rsp+21]

; 504  : _NODISCARD inline string to_string(int _Val) { // convert int to string

	mov	rbx, rcx

; 493  :     if (_Val < 0) {

	test	edx, edx
	jns	SHORT $LL19@to_string

; 458  :     auto _UVal_trunc = _UVal;

	neg	r8d
	npad	4
$LL14@to_string:

; 459  : #else // ^^^ _WIN64 ^^^ // vvv !_WIN64 vvv
; 460  : 
; 461  :     constexpr bool _Big_uty = sizeof(_UTy) > 4;
; 462  :     if
; 463  :         _CONSTEXPR_IF(_Big_uty) { // For 64-bit numbers, work in chunks to avoid 64-bit divisions.
; 464  :             while (_UVal > 0xFFFFFFFFU) {
; 465  :                 auto _UVal_chunk = static_cast<unsigned long>(_UVal % 1000000000);
; 466  :                 _UVal /= 1000000000;
; 467  : 
; 468  :                 for (int _Idx = 0; _Idx != 9; ++_Idx) {
; 469  :                     *--_RNext = static_cast<_Elem>('0' + _UVal_chunk % 10);
; 470  :                     _UVal_chunk /= 10;
; 471  :                 }
; 472  :             }
; 473  :         }
; 474  : 
; 475  :     auto _UVal_trunc = static_cast<unsigned long>(_UVal);
; 476  : #endif // _WIN64
; 477  : 
; 478  :     do {
; 479  :         *--_RNext = static_cast<_Elem>('0' + _UVal_trunc % 10);

	dec	r9
	mov	eax, -858993459				; cccccccdH
	mul	r8d
	shr	edx, 3
	movzx	eax, dl
	shl	al, 2
	lea	ecx, DWORD PTR [rax+rdx]
	add	cl, cl
	sub	r8b, cl
	add	r8b, 48					; 00000030H
	mov	BYTE PTR [r9], r8b

; 480  :         _UVal_trunc /= 10;

	mov	r8d, edx

; 481  :     } while (_UVal_trunc != 0);

	test	edx, edx
	jne	SHORT $LL14@to_string

; 495  :         *--_RNext = '-';

	dec	r9
	mov	BYTE PTR [r9], 45			; 0000002dH

; 496  :     } else {

	jmp	SHORT $LN7@to_string
	npad	13
$LL19@to_string:

; 479  :         *--_RNext = static_cast<_Elem>('0' + _UVal_trunc % 10);

	dec	r9
	mov	eax, -858993459				; cccccccdH
	mul	r8d
	shr	edx, 3
	movzx	eax, dl
	shl	al, 2
	lea	ecx, DWORD PTR [rax+rdx]
	add	cl, cl
	sub	r8b, cl
	add	r8b, 48					; 00000030H
	mov	BYTE PTR [r9], r8b

; 480  :         _UVal_trunc /= 10;

	mov	r8d, edx

; 481  :     } while (_UVal_trunc != 0);

	test	edx, edx
	jne	SHORT $LL19@to_string
$LN7@to_string:
; File C:\Program Files (x86)\Microsoft Visual Studio\2019\Community\VC\Tools\MSVC\14.25.28610\include\xstring

; 2405 :         if (_First != _Last) {

	lea	rax, QWORD PTR _Buff$3[rsp+21]

; 4201 :         _Mypair._Myval2._Mysize = 0;

	mov	QWORD PTR [rbx+16], 0

; 4202 :         _Mypair._Myval2._Myres  = _BUF_SIZE - 1;

	mov	QWORD PTR [rbx+24], 15

; 4203 :         // the _Traits::assign is last so the codegen doesn't think the char
; 4204 :         // write can alias this
; 4205 :         _Traits::assign(_Mypair._Myval2._Bx._Buf[0], _Elem());

	mov	BYTE PTR [rbx], 0

; 2405 :         if (_First != _Last) {

	cmp	r9, rax
	je	SHORT $LN38@to_string

; 2406 :             assign(_First, _Convert_size<size_type>(static_cast<size_t>(_Last - _First)));

	lea	r8, QWORD PTR _Buff$3[rsp+21]
	mov	rdx, r9
	sub	r8, r9
	mov	rcx, rbx
	call	?assign@?$basic_string@DU?$char_traits@D@std@@V?$allocator@D@2@@std@@QEAAAEAV12@QEBD_K@Z ; std::basic_string<char,std::char_traits<char>,std::allocator<char> >::assign
$LN38@to_string:
; File C:\Program Files (x86)\Microsoft Visual Studio\2019\Community\VC\Tools\MSVC\14.25.28610\include\string

; 506  : }

	mov	rax, rbx
	mov	rcx, QWORD PTR __$ArrayPad$[rsp]
	xor	rcx, rsp
	call	__security_check_cookie
	add	rsp, 80					; 00000050H
	pop	rbx
	ret	0
?to_string@std@@YA?AV?$basic_string@DU?$char_traits@D@std@@V?$allocator@D@2@@1@H@Z ENDP ; std::to_string
_TEXT	ENDS
; Function compile flags: /Ogtpy
; File C:\opencv\build\include\opencv2\core\mat.inl.hpp
;	COMDAT ?init@_InputArray@cv@@IEAAXHPEBX@Z
_TEXT	SEGMENT
this$ = 8
_flags$ = 16
_obj$ = 24
?init@_InputArray@cv@@IEAAXHPEBX@Z PROC			; cv::_InputArray::init, COMDAT

; 92   : { flags = _flags; obj = (void*)_obj; }

	mov	DWORD PTR [rcx], edx
	mov	QWORD PTR [rcx+8], r8
	ret	0
?init@_InputArray@cv@@IEAAXHPEBX@Z ENDP			; cv::_InputArray::init
_TEXT	ENDS
; Function compile flags: /Ogtpy
; File C:\opencv\build\include\opencv2\core\mat.inl.hpp
; File C:\opencv\build\include\opencv2\core\types.hpp
; File C:\opencv\build\include\opencv2\core\mat.inl.hpp
;	COMDAT ??0_InputArray@cv@@QEAA@XZ
_TEXT	SEGMENT
this$ = 8
??0_InputArray@cv@@QEAA@XZ PROC				; cv::_InputArray::_InputArray, COMDAT
; File C:\opencv\build\include\opencv2\core\types.hpp

; 1682 :     : width(0), height(0) {}

	xor	eax, eax
	mov	QWORD PTR [rcx+16], rax
; File C:\opencv\build\include\opencv2\core\mat.inl.hpp

; 92   : { flags = _flags; obj = (void*)_obj; }

	mov	DWORD PTR [rcx], eax
	mov	QWORD PTR [rcx+8], rax

; 101  : inline _InputArray::_InputArray() { init(0 + NONE, 0); }

	mov	rax, rcx
	ret	0
??0_InputArray@cv@@QEAA@XZ ENDP				; cv::_InputArray::_InputArray
_TEXT	ENDS
; Function compile flags: /Ogtpy
; File C:\opencv\build\include\opencv2\core\mat.inl.hpp
; File C:\opencv\build\include\opencv2\core\types.hpp
; File C:\opencv\build\include\opencv2\core\mat.inl.hpp
; File C:\opencv\build\include\opencv2\core\types.hpp
; File C:\opencv\build\include\opencv2\core\mat.inl.hpp
;	COMDAT ??0_InputArray@cv@@QEAA@AEBVMat@1@@Z
_TEXT	SEGMENT
this$ = 8
m$ = 16
??0_InputArray@cv@@QEAA@AEBVMat@1@@Z PROC		; cv::_InputArray::_InputArray, COMDAT
; File C:\opencv\build\include\opencv2\core\types.hpp

; 1682 :     : width(0), height(0) {}

	xor	eax, eax
; File C:\opencv\build\include\opencv2\core\mat.inl.hpp

; 92   : { flags = _flags; obj = (void*)_obj; }

	mov	DWORD PTR [rcx], 16842752		; 01010000H
; File C:\opencv\build\include\opencv2\core\types.hpp

; 1682 :     : width(0), height(0) {}

	mov	QWORD PTR [rcx+16], rax
; File C:\opencv\build\include\opencv2\core\mat.inl.hpp

; 103  : inline _InputArray::_InputArray(const Mat& m) { init(MAT+ACCESS_READ, &m); }

	mov	rax, rcx

; 92   : { flags = _flags; obj = (void*)_obj; }

	mov	QWORD PTR [rcx+8], rdx

; 103  : inline _InputArray::_InputArray(const Mat& m) { init(MAT+ACCESS_READ, &m); }

	ret	0
??0_InputArray@cv@@QEAA@AEBVMat@1@@Z ENDP		; cv::_InputArray::_InputArray
_TEXT	ENDS
; Function compile flags: /Ogtpy
; File C:\opencv\build\include\opencv2\core\mat.inl.hpp
;	COMDAT ??1_InputArray@cv@@QEAA@XZ
_TEXT	SEGMENT
this$dead$ = 8
??1_InputArray@cv@@QEAA@XZ PROC				; cv::_InputArray::~_InputArray, COMDAT

; 181  : inline _InputArray::~_InputArray() {}

	ret	0
??1_InputArray@cv@@QEAA@XZ ENDP				; cv::_InputArray::~_InputArray
_TEXT	ENDS
; Function compile flags: /Ogtpy
; File C:\opencv\build\include\opencv2\core\mat.inl.hpp
; File C:\opencv\build\include\opencv2\core\types.hpp
; File C:\opencv\build\include\opencv2\core\mat.inl.hpp
; File C:\opencv\build\include\opencv2\core\types.hpp
; File C:\opencv\build\include\opencv2\core\mat.inl.hpp
;	COMDAT ??0_OutputArray@cv@@QEAA@XZ
_TEXT	SEGMENT
this$ = 8
??0_OutputArray@cv@@QEAA@XZ PROC			; cv::_OutputArray::_OutputArray, COMDAT
; File C:\opencv\build\include\opencv2\core\types.hpp

; 1682 :     : width(0), height(0) {}

	xor	eax, eax
; File C:\opencv\build\include\opencv2\core\mat.inl.hpp

; 92   : { flags = _flags; obj = (void*)_obj; }

	mov	DWORD PTR [rcx], 33554432		; 02000000H
; File C:\opencv\build\include\opencv2\core\types.hpp

; 1682 :     : width(0), height(0) {}

	mov	QWORD PTR [rcx+16], rax
; File C:\opencv\build\include\opencv2\core\mat.inl.hpp

; 92   : { flags = _flags; obj = (void*)_obj; }

	mov	QWORD PTR [rcx+8], rax

; 203  : inline _OutputArray::_OutputArray() { init(NONE + ACCESS_WRITE, 0); }

	mov	rax, rcx
	ret	0
??0_OutputArray@cv@@QEAA@XZ ENDP			; cv::_OutputArray::_OutputArray
_TEXT	ENDS
; Function compile flags: /Ogtpy
; File C:\opencv\build\include\opencv2\core\mat.inl.hpp
; File C:\opencv\build\include\opencv2\core\types.hpp
; File C:\opencv\build\include\opencv2\core\mat.inl.hpp
; File C:\opencv\build\include\opencv2\core\types.hpp
; File C:\opencv\build\include\opencv2\core\mat.inl.hpp
;	COMDAT ??0_OutputArray@cv@@QEAA@AEAVMat@1@@Z
_TEXT	SEGMENT
this$ = 8
m$ = 16
??0_OutputArray@cv@@QEAA@AEAVMat@1@@Z PROC		; cv::_OutputArray::_OutputArray, COMDAT
; File C:\opencv\build\include\opencv2\core\types.hpp

; 1682 :     : width(0), height(0) {}

	xor	eax, eax
; File C:\opencv\build\include\opencv2\core\mat.inl.hpp

; 92   : { flags = _flags; obj = (void*)_obj; }

	mov	DWORD PTR [rcx], 33619968		; 02010000H
; File C:\opencv\build\include\opencv2\core\types.hpp

; 1682 :     : width(0), height(0) {}

	mov	QWORD PTR [rcx+16], rax
; File C:\opencv\build\include\opencv2\core\mat.inl.hpp

; 205  : inline _OutputArray::_OutputArray(Mat& m) { init(MAT+ACCESS_WRITE, &m); }

	mov	rax, rcx

; 92   : { flags = _flags; obj = (void*)_obj; }

	mov	QWORD PTR [rcx+8], rdx

; 205  : inline _OutputArray::_OutputArray(Mat& m) { init(MAT+ACCESS_WRITE, &m); }

	ret	0
??0_OutputArray@cv@@QEAA@AEAVMat@1@@Z ENDP		; cv::_OutputArray::_OutputArray
_TEXT	ENDS
; Function compile flags: /Ogtpy
;	COMDAT ??1_OutputArray@cv@@QEAA@XZ
_TEXT	SEGMENT
this$dead$ = 8
??1_OutputArray@cv@@QEAA@XZ PROC			; cv::_OutputArray::~_OutputArray, COMDAT
	ret	0
??1_OutputArray@cv@@QEAA@XZ ENDP			; cv::_OutputArray::~_OutputArray
_TEXT	ENDS
; Function compile flags: /Ogtpy
; File C:\opencv\build\include\opencv2\core\mat.inl.hpp
; File C:\opencv\build\include\opencv2\core\types.hpp
; File C:\opencv\build\include\opencv2\core\mat.inl.hpp
; File C:\opencv\build\include\opencv2\core\types.hpp
; File C:\opencv\build\include\opencv2\core\mat.inl.hpp
;	COMDAT ??0_InputOutputArray@cv@@QEAA@AEAVMat@1@@Z
_TEXT	SEGMENT
this$ = 8
m$ = 16
??0_InputOutputArray@cv@@QEAA@AEAVMat@1@@Z PROC		; cv::_InputOutputArray::_InputOutputArray, COMDAT
; File C:\opencv\build\include\opencv2\core\types.hpp

; 1682 :     : width(0), height(0) {}

	xor	eax, eax
; File C:\opencv\build\include\opencv2\core\mat.inl.hpp

; 92   : { flags = _flags; obj = (void*)_obj; }

	mov	DWORD PTR [rcx], 50397184		; 03010000H
; File C:\opencv\build\include\opencv2\core\types.hpp

; 1682 :     : width(0), height(0) {}

	mov	QWORD PTR [rcx+16], rax
; File C:\opencv\build\include\opencv2\core\mat.inl.hpp

; 331  : inline _InputOutputArray::_InputOutputArray(Mat& m) { init(MAT+ACCESS_RW, &m); }

	mov	rax, rcx

; 92   : { flags = _flags; obj = (void*)_obj; }

	mov	QWORD PTR [rcx+8], rdx

; 331  : inline _InputOutputArray::_InputOutputArray(Mat& m) { init(MAT+ACCESS_RW, &m); }

	ret	0
??0_InputOutputArray@cv@@QEAA@AEAVMat@1@@Z ENDP		; cv::_InputOutputArray::_InputOutputArray
_TEXT	ENDS
; Function compile flags: /Ogtpy
; File C:\opencv\build\include\opencv2\core\mat.inl.hpp
;	COMDAT ??0Mat@cv@@QEAA@XZ
_TEXT	SEGMENT
this$ = 8
??0Mat@cv@@QEAA@XZ PROC					; cv::Mat::Mat, COMDAT

; 466  :     : flags(MAGIC_VAL), dims(0), rows(0), cols(0), data(0), datastart(0), dataend(0),

	xor	edx, edx
	mov	QWORD PTR [rcx], 1124007936		; 42ff0000H
	mov	DWORD PTR [rcx+8], edx
	lea	rax, QWORD PTR [rcx+8]

; 1468 :     : p(_p) {}

	mov	QWORD PTR [rcx+64], rax

; 1544 :     p = buf; p[0] = s; p[1] = 0;

	lea	rax, QWORD PTR [rcx+80]
	mov	QWORD PTR [rcx+72], rax

; 466  :     : flags(MAGIC_VAL), dims(0), rows(0), cols(0), data(0), datastart(0), dataend(0),

	mov	DWORD PTR [rcx+12], edx
	mov	QWORD PTR [rcx+16], rdx
	mov	QWORD PTR [rcx+24], rdx
	mov	QWORD PTR [rcx+32], rdx

; 467  :       datalimit(0), allocator(0), u(0), size(&rows), step(0)

	mov	QWORD PTR [rcx+40], rdx
	mov	QWORD PTR [rcx+48], rdx
	mov	QWORD PTR [rcx+56], rdx

; 1544 :     p = buf; p[0] = s; p[1] = 0;

	mov	QWORD PTR [rax], rdx
	mov	rax, QWORD PTR [rcx+72]
	mov	QWORD PTR [rax+8], rdx

; 468  : {}

	mov	rax, rcx
	ret	0
??0Mat@cv@@QEAA@XZ ENDP					; cv::Mat::Mat
_TEXT	ENDS
; Function compile flags: /Ogtpy
; File C:\opencv\build\include\opencv2\core\mat.inl.hpp
;	COMDAT ??1Mat@cv@@QEAA@XZ
_TEXT	SEGMENT
this$ = 48
??1Mat@cv@@QEAA@XZ PROC					; cv::Mat::~Mat, COMDAT

; 751  : {

$LN16:
	push	rbx
	sub	rsp, 32					; 00000020H
	mov	rbx, rcx

; 865  :     if( u && CV_XADD(&u->refcount, -1) == 1 )

	mov	rcx, QWORD PTR [rcx+56]
	test	rcx, rcx
	je	SHORT $LN8@Mat
	mov	eax, -1
	lock xadd DWORD PTR [rcx+20], eax
	cmp	eax, 1
	jne	SHORT $LN8@Mat

; 866  :         deallocate();

	mov	rcx, rbx
	call	QWORD PTR __imp_?deallocate@Mat@cv@@QEAAXXZ
$LN8@Mat:

; 867  :     u = NULL;

	xor	r8d, r8d
	mov	QWORD PTR [rbx+56], r8

; 868  :     datastart = dataend = datalimit = data = 0;

	mov	QWORD PTR [rbx+16], r8
	mov	QWORD PTR [rbx+40], r8
	mov	QWORD PTR [rbx+32], r8
	mov	QWORD PTR [rbx+24], r8

; 869  :     for(int i = 0; i < dims; i++)

	mov	ecx, r8d
	cmp	DWORD PTR [rbx+4], ecx
	jle	SHORT $LN6@Mat
	mov	edx, r8d
	npad	4
$LL7@Mat:

; 870  :         size.p[i] = 0;

	mov	rax, QWORD PTR [rbx+64]
	mov	DWORD PTR [rdx+rax], r8d

; 869  :     for(int i = 0; i < dims; i++)

	inc	ecx
	lea	rdx, QWORD PTR [rdx+4]
	cmp	ecx, DWORD PTR [rbx+4]
	jl	SHORT $LL7@Mat
$LN6@Mat:

; 752  :     release();
; 753  :     if( step.p != step.buf )

	mov	rcx, QWORD PTR [rbx+72]
	lea	rax, QWORD PTR [rbx+80]
	cmp	rcx, rax
	je	SHORT $LN2@Mat

; 754  :         fastFree(step.p);

	call	QWORD PTR __imp_?fastFree@cv@@YAXPEAX@Z
	npad	1
$LN2@Mat:

; 755  : }

	add	rsp, 32					; 00000020H
	pop	rbx
	ret	0
??1Mat@cv@@QEAA@XZ ENDP					; cv::Mat::~Mat
_TEXT	ENDS
; Function compile flags: /Ogtpy
;	COMDAT ?__autoclassinit2@Mat@cv@@QEAAX_K@Z
_TEXT	SEGMENT
this$ = 8
classSize$dead$ = 16
?__autoclassinit2@Mat@cv@@QEAAX_K@Z PROC		; cv::Mat::__autoclassinit2, COMDAT
	xorps	xmm0, xmm0
	movups	XMMWORD PTR [rcx], xmm0
	movups	XMMWORD PTR [rcx+16], xmm0
	movups	XMMWORD PTR [rcx+32], xmm0
	movups	XMMWORD PTR [rcx+48], xmm0
	movups	XMMWORD PTR [rcx+64], xmm0
	movups	XMMWORD PTR [rcx+80], xmm0
	ret	0
?__autoclassinit2@Mat@cv@@QEAAX_K@Z ENDP		; cv::Mat::__autoclassinit2
_TEXT	ENDS
; Function compile flags: /Ogtpy
; File C:\opencv\build\include\opencv2\core\mat.inl.hpp
;	COMDAT ?release@Mat@cv@@QEAAXXZ
_TEXT	SEGMENT
this$ = 48
?release@Mat@cv@@QEAAXXZ PROC				; cv::Mat::release, COMDAT

; 864  : {

$LN12:
	push	rbx
	sub	rsp, 32					; 00000020H
	mov	rbx, rcx

; 865  :     if( u && CV_XADD(&u->refcount, -1) == 1 )

	mov	rcx, QWORD PTR [rcx+56]
	test	rcx, rcx
	je	SHORT $LN5@release
	mov	eax, -1
	lock xadd DWORD PTR [rcx+20], eax
	cmp	eax, 1
	jne	SHORT $LN5@release

; 866  :         deallocate();

	mov	rcx, rbx
	call	QWORD PTR __imp_?deallocate@Mat@cv@@QEAAXXZ
$LN5@release:

; 867  :     u = NULL;

	xor	r8d, r8d

; 868  :     datastart = dataend = datalimit = data = 0;
; 869  :     for(int i = 0; i < dims; i++)

	mov	ecx, r8d
	mov	QWORD PTR [rbx+56], r8
	mov	QWORD PTR [rbx+16], r8
	mov	QWORD PTR [rbx+40], r8
	mov	QWORD PTR [rbx+32], r8
	mov	QWORD PTR [rbx+24], r8
	cmp	DWORD PTR [rbx+4], ecx
	jle	SHORT $LN3@release
	mov	edx, r8d
	npad	4
$LL4@release:

; 870  :         size.p[i] = 0;

	mov	rax, QWORD PTR [rbx+64]
	lea	rdx, QWORD PTR [rdx+4]
	inc	ecx
	mov	DWORD PTR [rdx+rax-4], r8d
	cmp	ecx, DWORD PTR [rbx+4]
	jl	SHORT $LL4@release
$LN3@release:

; 871  : #ifdef _DEBUG
; 872  :     flags = MAGIC_VAL;
; 873  :     dims = rows = cols = 0;
; 874  :     if(step.p != step.buf)
; 875  :     {
; 876  :         fastFree(step.p);
; 877  :         step.p = step.buf;
; 878  :         size.p = &rows;
; 879  :     }
; 880  : #endif
; 881  : }

	add	rsp, 32					; 00000020H
	pop	rbx
	ret	0
?release@Mat@cv@@QEAAXXZ ENDP				; cv::Mat::release
_TEXT	ENDS
; Function compile flags: /Ogtpy
; File C:\opencv\build\include\opencv2\core\mat.inl.hpp
;	COMDAT ?empty@Mat@cv@@QEBA_NXZ
_TEXT	SEGMENT
this$ = 8
?empty@Mat@cv@@QEBA_NXZ PROC				; cv::Mat::empty, COMDAT

; 960  :     return data == 0 || total() == 0 || dims == 0;

	cmp	QWORD PTR [rcx+16], 0
	je	SHORT $LN3@empty

; 966  :     if( dims <= 2 )

	movsxd	r9, DWORD PTR [rcx+4]
	cmp	r9d, 2
	jg	SHORT $LN9@empty

; 967  :         return (size_t)rows * cols;

	movsxd	rdx, DWORD PTR [rcx+12]
	movsxd	rax, DWORD PTR [rcx+8]
	imul	rdx, rax
	jmp	SHORT $LN5@empty
$LN9@empty:

; 968  :     size_t p = 1;

	mov	edx, 1

; 969  :     for( int i = 0; i < dims; i++ )

	mov	r8, r9
	test	r9d, r9d
	jle	SHORT $LN5@empty

; 1490 :     return p[i];

	mov	rcx, QWORD PTR [rcx+64]
$LL15@empty:

; 970  :         p *= size[i];

	movsxd	rax, DWORD PTR [rcx]
	lea	rcx, QWORD PTR [rcx+4]
	imul	rdx, rax
	sub	r8, 1
	jne	SHORT $LL15@empty
$LN5@empty:

; 960  :     return data == 0 || total() == 0 || dims == 0;

	test	rdx, rdx
	je	SHORT $LN3@empty
	test	r9d, r9d
	je	SHORT $LN3@empty
	xor	al, al

; 961  : }

	ret	0
$LN3@empty:

; 960  :     return data == 0 || total() == 0 || dims == 0;

	mov	al, 1

; 961  : }

	ret	0
?empty@Mat@cv@@QEBA_NXZ ENDP				; cv::Mat::empty
_TEXT	ENDS
; Function compile flags: /Ogtpy
; File C:\opencv\build\include\opencv2\core\mat.inl.hpp
;	COMDAT ?total@Mat@cv@@QEBA_KXZ
_TEXT	SEGMENT
this$ = 8
?total@Mat@cv@@QEBA_KXZ PROC				; cv::Mat::total, COMDAT

; 966  :     if( dims <= 2 )

	movsxd	rdx, DWORD PTR [rcx+4]
	cmp	edx, 2
	jg	SHORT $LN5@total

; 967  :         return (size_t)rows * cols;

	movsxd	rax, DWORD PTR [rcx+12]
	movsxd	rcx, DWORD PTR [rcx+8]
	imul	rax, rcx

; 971  :     return p;
; 972  : }

	ret	0
$LN5@total:

; 968  :     size_t p = 1;

	mov	eax, 1

; 969  :     for( int i = 0; i < dims; i++ )

	mov	r8, rdx
	test	edx, edx
	jle	SHORT $LN3@total

; 1490 :     return p[i];

	mov	rdx, QWORD PTR [rcx+64]
	npad	10
$LL11@total:

; 970  :         p *= size[i];

	movsxd	rcx, DWORD PTR [rdx]
	lea	rdx, QWORD PTR [rdx+4]
	imul	rax, rcx
	sub	r8, 1
	jne	SHORT $LL11@total
$LN3@total:

; 971  :     return p;
; 972  : }

	ret	0
?total@Mat@cv@@QEBA_KXZ ENDP				; cv::Mat::total
_TEXT	ENDS
; Function compile flags: /Ogtpy
; File C:\opencv\build\include\opencv2\core\mat.inl.hpp
;	COMDAT ??0MatSize@cv@@QEAA@PEAH@Z
_TEXT	SEGMENT
this$ = 8
_p$ = 16
??0MatSize@cv@@QEAA@PEAH@Z PROC				; cv::MatSize::MatSize, COMDAT

; 1468 :     : p(_p) {}

	mov	QWORD PTR [rcx], rdx
	mov	rax, rcx
	ret	0
??0MatSize@cv@@QEAA@PEAH@Z ENDP				; cv::MatSize::MatSize
_TEXT	ENDS
; Function compile flags: /Ogtpy
; File C:\opencv\build\include\opencv2\core\mat.inl.hpp
;	COMDAT ??AMatSize@cv@@QEBAAEBHH@Z
_TEXT	SEGMENT
this$ = 8
i$ = 16
??AMatSize@cv@@QEBAAEBHH@Z PROC				; cv::MatSize::operator[], COMDAT

; 1486 :     CV_DbgAssert(i < dims());
; 1487 : #ifdef __OPENCV_BUILD
; 1488 :     CV_DbgAssert(i >= 0);
; 1489 : #endif
; 1490 :     return p[i];

	mov	rax, QWORD PTR [rcx]
	movsxd	rdx, edx
	lea	rax, QWORD PTR [rax+rdx*4]

; 1491 : }

	ret	0
??AMatSize@cv@@QEBAAEBHH@Z ENDP				; cv::MatSize::operator[]
_TEXT	ENDS
; Function compile flags: /Ogtpy
; File C:\opencv\build\include\opencv2\core\mat.inl.hpp
;	COMDAT ??0MatStep@cv@@QEAA@_K@Z
_TEXT	SEGMENT
this$ = 8
s$dead$ = 16
??0MatStep@cv@@QEAA@_K@Z PROC				; cv::MatStep::MatStep, COMDAT

; 1544 :     p = buf; p[0] = s; p[1] = 0;

	lea	rax, QWORD PTR [rcx+8]
	xor	edx, edx
	mov	QWORD PTR [rcx], rax
	mov	QWORD PTR [rax], rdx
	mov	QWORD PTR [rax+8], rdx

; 1545 : }

	mov	rax, rcx
	ret	0
??0MatStep@cv@@QEAA@_K@Z ENDP				; cv::MatStep::MatStep
_TEXT	ENDS
; Function compile flags: /Ogtpy
; File C:\opencv\build\include\opencv2\flann\any.h
;	COMDAT ??6anyimpl@cvflann@@YAAEAV?$basic_ostream@DU?$char_traits@D@std@@@std@@AEAV23@AEBUempty_any@01@@Z
_TEXT	SEGMENT
out$ = 48
__formal$dead$ = 56
??6anyimpl@cvflann@@YAAEAV?$basic_ostream@DU?$char_traits@D@std@@@std@@AEAV23@AEBUempty_any@01@@Z PROC ; cvflann::anyimpl::operator<<, COMDAT

; 37   : {

$LN4:
	push	rbx
	sub	rsp, 32					; 00000020H

; 38   :     out << "[empty_any]";

	lea	rdx, OFFSET FLAT:??_C@_0M@LLFGKPEG@?$FLempty_any?$FN@
	mov	rbx, rcx
	call	??$?6U?$char_traits@D@std@@@std@@YAAEAV?$basic_ostream@DU?$char_traits@D@std@@@0@AEAV10@PEBD@Z ; std::operator<<<std::char_traits<char> >

; 39   :     return out;

	mov	rax, rbx

; 40   : }

	add	rsp, 32					; 00000020H
	pop	rbx
	ret	0
??6anyimpl@cvflann@@YAAEAV?$basic_ostream@DU?$char_traits@D@std@@@std@@AEAV23@AEBUempty_any@01@@Z ENDP ; cvflann::anyimpl::operator<<
_TEXT	ENDS
; Function compile flags: /Ogtpy
; File C:\opencv\build\include\opencv2\flann\any.h
;	COMDAT ??1base_any_policy@anyimpl@cvflann@@UEAA@XZ
_TEXT	SEGMENT
this$ = 8
??1base_any_policy@anyimpl@cvflann@@UEAA@XZ PROC	; cvflann::anyimpl::base_any_policy::~base_any_policy, COMDAT

; 53   :     virtual ~base_any_policy() {}

	lea	rax, OFFSET FLAT:??_7base_any_policy@anyimpl@cvflann@@6B@
	mov	QWORD PTR [rcx], rax
	ret	0
??1base_any_policy@anyimpl@cvflann@@UEAA@XZ ENDP	; cvflann::anyimpl::base_any_policy::~base_any_policy
_TEXT	ENDS
; Function compile flags: /Ogtpy
;	COMDAT ??_Gbase_any_policy@anyimpl@cvflann@@UEAAPEAXI@Z
_TEXT	SEGMENT
this$ = 48
__flags$ = 56
??_Gbase_any_policy@anyimpl@cvflann@@UEAAPEAXI@Z PROC	; cvflann::anyimpl::base_any_policy::`scalar deleting destructor', COMDAT
$LN7:
	push	rbx
	sub	rsp, 32					; 00000020H
	lea	rax, OFFSET FLAT:??_7base_any_policy@anyimpl@cvflann@@6B@
	mov	rbx, rcx
	mov	QWORD PTR [rcx], rax
	test	dl, 1
	je	SHORT $LN4@scalar
	mov	edx, 8
	call	??3@YAXPEAX_K@Z				; operator delete
$LN4@scalar:
	mov	rax, rbx
	add	rsp, 32					; 00000020H
	pop	rbx
	ret	0
??_Gbase_any_policy@anyimpl@cvflann@@UEAAPEAXI@Z ENDP	; cvflann::anyimpl::base_any_policy::`scalar deleting destructor'
_TEXT	ENDS
; Function compile flags: /Ogtpy
; File C:\opencv\build\include\opencv2\flann\any.h
;	COMDAT ?print@?$big_any_policy@W4flann_centers_init_t@cvflann@@@anyimpl@cvflann@@UEAAXAEAV?$basic_ostream@DU?$char_traits@D@std@@@std@@PEBQEAX@Z
_TEXT	SEGMENT
this$ = 8
out$ = 16
src$ = 24
?print@?$big_any_policy@W4flann_centers_init_t@cvflann@@@anyimpl@cvflann@@UEAAXAEAV?$basic_ostream@DU?$char_traits@D@std@@@std@@PEBQEAX@Z PROC ; cvflann::anyimpl::big_any_policy<enum cvflann::flann_centers_init_t>::print, COMDAT

; 107  :     out << int(*reinterpret_cast<flann_centers_init_t const*>(*src));

	mov	rax, QWORD PTR [r8]
	mov	rcx, rdx
	mov	edx, DWORD PTR [rax]
	rex_jmp	QWORD PTR __imp_??6?$basic_ostream@DU?$char_traits@D@std@@@std@@QEAAAEAV01@H@Z
?print@?$big_any_policy@W4flann_centers_init_t@cvflann@@@anyimpl@cvflann@@UEAAXAEAV?$basic_ostream@DU?$char_traits@D@std@@@std@@PEBQEAX@Z ENDP ; cvflann::anyimpl::big_any_policy<enum cvflann::flann_centers_init_t>::print
_TEXT	ENDS
; Function compile flags: /Ogtpy
; File C:\opencv\build\include\opencv2\flann\any.h
;	COMDAT ?print@?$big_any_policy@W4flann_algorithm_t@cvflann@@@anyimpl@cvflann@@UEAAXAEAV?$basic_ostream@DU?$char_traits@D@std@@@std@@PEBQEAX@Z
_TEXT	SEGMENT
this$ = 8
out$ = 16
src$ = 24
?print@?$big_any_policy@W4flann_algorithm_t@cvflann@@@anyimpl@cvflann@@UEAAXAEAV?$basic_ostream@DU?$char_traits@D@std@@@std@@PEBQEAX@Z PROC ; cvflann::anyimpl::big_any_policy<enum cvflann::flann_algorithm_t>::print, COMDAT

; 112  :     out << int(*reinterpret_cast<flann_algorithm_t const*>(*src));

	mov	rax, QWORD PTR [r8]
	mov	rcx, rdx
	mov	edx, DWORD PTR [rax]
	rex_jmp	QWORD PTR __imp_??6?$basic_ostream@DU?$char_traits@D@std@@@std@@QEAAAEAV01@H@Z
?print@?$big_any_policy@W4flann_algorithm_t@cvflann@@@anyimpl@cvflann@@UEAAXAEAV?$basic_ostream@DU?$char_traits@D@std@@@std@@PEBQEAX@Z ENDP ; cvflann::anyimpl::big_any_policy<enum cvflann::flann_algorithm_t>::print
_TEXT	ENDS
; Function compile flags: /Ogtpy
; File C:\opencv\build\include\opencv2\flann\any.h
; File C:\Program Files (x86)\Microsoft Visual Studio\2019\Community\VC\Tools\MSVC\14.25.28610\include\xstring
; File C:\opencv\build\include\opencv2\flann\any.h
;	COMDAT ?print@?$big_any_policy@V?$basic_string@DU?$char_traits@D@std@@V?$allocator@D@2@@std@@@anyimpl@cvflann@@UEAAXAEAV?$basic_ostream@DU?$char_traits@D@std@@@std@@PEBQEAX@Z
_TEXT	SEGMENT
this$ = 8
out$ = 16
src$ = 24
?print@?$big_any_policy@V?$basic_string@DU?$char_traits@D@std@@V?$allocator@D@2@@std@@@anyimpl@cvflann@@UEAAXAEAV?$basic_ostream@DU?$char_traits@D@std@@@std@@PEBQEAX@Z PROC ; cvflann::anyimpl::big_any_policy<std::basic_string<char,std::char_traits<char>,std::allocator<char> > >::print, COMDAT

; 116  : {

	mov	rax, rdx
; File C:\Program Files (x86)\Microsoft Visual Studio\2019\Community\VC\Tools\MSVC\14.25.28610\include\xstring

; 3576 :         return _Mypair._Myval2._Myptr();

	mov	rdx, QWORD PTR [r8]

; 2161 :         return _BUF_SIZE <= _Myres;

	cmp	QWORD PTR [rdx+24], 16

; 2153 :         if (_Large_string_engaged()) {

	jb	SHORT $LN6@print

; 2154 :             _Result = _Unfancy(_Bx._Ptr);

	mov	rdx, QWORD PTR [rdx]
$LN6@print:
; File C:\opencv\build\include\opencv2\flann\any.h

; 117  :     out << (*reinterpret_cast<cv::String const*>(*src)).c_str();

	mov	rcx, rax
	jmp	??$?6U?$char_traits@D@std@@@std@@YAAEAV?$basic_ostream@DU?$char_traits@D@std@@@0@AEAV10@PEBD@Z ; std::operator<<<std::char_traits<char> >
?print@?$big_any_policy@V?$basic_string@DU?$char_traits@D@std@@V?$allocator@D@2@@std@@@anyimpl@cvflann@@UEAAXAEAV?$basic_ostream@DU?$char_traits@D@std@@@std@@PEBQEAX@Z ENDP ; cvflann::anyimpl::big_any_policy<std::basic_string<char,std::char_traits<char>,std::allocator<char> > >::print
_TEXT	ENDS
; Function compile flags: /Ogtpy
;	COMDAT ??1_InputOutputArray@cv@@QEAA@XZ
_TEXT	SEGMENT
this$dead$ = 8
??1_InputOutputArray@cv@@QEAA@XZ PROC			; cv::_InputOutputArray::~_InputOutputArray, COMDAT
	ret	0
??1_InputOutputArray@cv@@QEAA@XZ ENDP			; cv::_InputOutputArray::~_InputOutputArray
_TEXT	ENDS
; Function compile flags: /Ogtpy
; File C:\Users\Sergio\Desktop\vc_teste\temp\temp\main.cpp
;	COMDAT vc_binary_blob_labelling
_TEXT	SEGMENT
bytesperline$1$ = 32
tv3854 = 40
tv3852 = 48
tv3847 = 56
tv3875 = 64
tv3862 = 72
tv3859 = 80
tv3829 = 88
datadst$1$ = 96
nlabels$GSCopy$1$ = 104
labeltable$ = 112
__$ArrayPad$ = 1136
original$ = 1216
converted$ = 1224
nlabels$ = 1232
vc_binary_blob_labelling PROC				; COMDAT

; 16   : {

$LN176:
	mov	QWORD PTR [rsp+32], rbx
	push	rbp
	push	rsi
	push	rdi
	push	r12
	push	r13
	push	r14
	push	r15
	sub	rsp, 1152				; 00000480H
	mov	rax, QWORD PTR __security_cookie
	xor	rax, rsp
	mov	QWORD PTR __$ArrayPad$[rsp], rax

; 17   : 	unsigned char* datasrc = (unsigned char*)original->data;
